; ModuleID = 'TimeTag/PARSE_TimeTagFileHeader.cpp'
source_filename = "TimeTag/PARSE_TimeTagFileHeader.cpp"
target datalayout = "e-m:w-i64:64-f80:128-n8:16:32:64-S128"
target triple = "x86_64-pc-windows-msvc19.15.26732"

%struct.TgHd = type { [32 x i8], i32, i32, i64 }
%struct._iobuf = type { i8* }
%struct.__crt_locale_pointers = type { %struct.__crt_locale_data*, %struct.__crt_multibyte_data* }
%struct.__crt_locale_data = type opaque
%struct.__crt_multibyte_data = type opaque
%struct.tm = type { i32, i32, i32, i32, i32, i32, i32, i32, i32 }

$printf = comdat any

$sprintf = comdat any

$wprintf = comdat any

$_vfprintf_l = comdat any

$__local_stdio_printf_options = comdat any

$_vsprintf_l = comdat any

$_vsnprintf_l = comdat any

$_vfwprintf_l = comdat any

$"\01??_C@_0EA@FDLFOLNG@?6Becker?5?$CG?5Hickl?5SPC?9134?1144?1154?1@" = comdat any

$"\01??_C@_0BL@CDCKOJBK@?6RecordType?3?5bh_spc_4bytes?$AA@" = comdat any

$"\01??_C@_0DA@FODAHEFK@?6Swebian?5Instrument?5timetag?5file@" = comdat any

$"\01??_C@_0CI@PMHKJGIO@?6RecordType?3?5SwebianInstrument?51@" = comdat any

$"\01??_C@_0CN@NEMBOFCA@?6?5?$FLERROR?$FNError?5when?5reading?5head@" = comdat any

$"\01??_C@_0DH@LIKDKBGP@?6quTAU_FORMAT_BINARY?5file?5header@" = comdat any

$"\01??_C@_0CK@BIOCEFDD@?6RecordType?3?5quTAU_FORMAT_BINARY@" = comdat any

$"\01??_C@_0DL@ILPAIDLG@?6quTAU_FORMAT_COMPRESSED?5file?5he@" = comdat any

$"\01??_C@_0CN@MLAGFJGP@?6RecordType?3?5quTAU_FORMAT_COMPRE@" = comdat any

$"\01??_C@_0CJ@BKHAGGLC@?6?5?$FLERROR?$FN?6error?5reading?5header?0?5@" = comdat any

$"\01??_C@_0BH@PAEBLGPJ@?6PTU?5file?5Header?3?5?$CFs?5?6?$AA@" = comdat any

$"\01??_C@_0BD@GFPKCHLP@?6?6Incomplete?5File?4?$AA@" = comdat any

$"\01??_C@_06BPGFIOAL@?$CFs?$CI?$CFd?$CJ?$AA@" = comdat any

$"\01??_C@_06PHODKAKM@?6?$CF?940s?$AA@" = comdat any

$"\01??_C@_0M@HECCAEGL@?$DMempty?5Tag?$DO?$AA@" = comdat any

$"\01??_C@_04HPMIDMKH@True?$AA@" = comdat any

$"\01??_C@_05MKDOIIA@False?$AA@" = comdat any

$"\01??_C@_02DKCKIIND@?$CFs?$AA@" = comdat any

$"\01??_C@_04BFAHMMK@?$CFlld?$AA@" = comdat any

$"\01??_C@_0BJ@EFFGOIKF@TTResult_NumberOfRecords?$AA@" = comdat any

$"\01??_C@_0BL@NBAMDLKF@TTResultFormat_TTTRRecType?$AA@" = comdat any

$"\01??_C@_09DGLOBCMH@0x?$CF16?416X?$AA@" = comdat any

$"\01??_C@_02LDDGBJKG@?$CFE?$AA@" = comdat any

$"\01??_C@_0BE@MLJFPCOI@MeasDesc_Resolution?$AA@" = comdat any

$"\01??_C@_0BK@JGMIOCJJ@MeasDesc_GlobalResolution?$AA@" = comdat any

$"\01??_C@_0BO@ENEJMDLG@?$DMFloat?5Array?5with?5?$CFd?5Entries?$DO?$AA@" = comdat any

$"\01??_C@_01LOCGONAA@?$AA?$AA@" = comdat any

$"\01??_C@_0BC@KFPMDKOJ@?6Incomplete?5File?4?$AA@" = comdat any

$"\01??_C@_15GANGMFKL@?$AA?$CF?$AAs?$AA?$AA@" = comdat any

$"\01??_C@_0CA@FNNAPBCN@?$DMBinary?5Blob?5contains?5?$CFd?5Bytes?$DO?$AA@" = comdat any

$"\01??_C@_0CM@NLBAOIPI@Illegal?5Type?5identifier?5found?$CB?5B@" = comdat any

$"\01??_C@_0L@BKLBDFDP@Header_End?$AA@" = comdat any

$"\01??_C@_0BL@HPPLJEMK@?6?6?9?9?9?9?9?9?9?9?9?9?9?9?9?9?9?9?9?9?9?9?9?9?9?6?$AA@" = comdat any

$"\01??_C@_0BD@EHFANJBB@?6PicoHarp?5T2?5data?6?$AA@" = comdat any

$"\01??_C@_0BH@NKCKBLM@?6HydraHarp?5V1?5T2?5data?6?$AA@" = comdat any

$"\01??_C@_0BH@JEEAMHLN@?6HydraHarp?5V2?5T2?5data?6?$AA@" = comdat any

$"\01??_C@_0BH@DICKBJCF@?6TimeHarp260N?5T2?5data?6?$AA@" = comdat any

$"\01??_C@_0BH@MEKKPGOI@?6TimeHarp260P?5T2?5data?6?$AA@" = comdat any

$"\01??_C@_0BD@ILPKNJIP@?6PicoHarp?5T3?5data?6?$AA@" = comdat any

$"\01??_C@_0BH@MBAIKBCC@?6HydraHarp?5V1?5T3?5data?6?$AA@" = comdat any

$"\01??_C@_0BH@FIOKMHCD@?6HydraHarp?5V2?5T3?5data?6?$AA@" = comdat any

$"\01??_C@_0BH@PEIABJLL@?6TimeHarp260N?5T3?5data?6?$AA@" = comdat any

$"\01??_C@_0BH@IAAPGHG@?6TimeHarp260P?5T3?5data?6?$AA@" = comdat any

$"\01??_C@_0CM@KKBPPLIM@?6Unknown?5time?9tag?5record?5type?3?50@" = comdat any

$"\01??_C@_0P@HHDHBNCE@?6File?5name?3?5?$CFs?$AA@" = comdat any

$"\01??_C@_02JDPG@rb?$AA@" = comdat any

$"\01??_C@_0DC@PALJOGBL@?6?5?$FLERROR?$FNCan?5not?5open?5time?9tagge@" = comdat any

$"\01??_C@_0CJ@FCCDKPDO@?6?5?$FLERROR?$FNFailed?5to?5read?5header?0?5@" = comdat any

$"\01??_C@_06OMFAFKCA@PQTTTR?$AA@" = comdat any

$"\01??_C@_04CHFOFOOE@?$IH?$LD?$JB?z?$AA@" = comdat any

$"\01??_C@_0CG@HMLPIAGM@?6Header?5Parser?3?5quTAU_FORMAT_BIN@" = comdat any

$"\01??_C@_0CF@NEHPJAOD@?6Header?5Parser?3?5Swebian?5Instrume@" = comdat any

$"\01??_C@_0CK@FCNMCNDN@?6Header?5Parser?3?5quTAU_FORMAT_COM@" = comdat any

$"\01??_C@_0CA@KMEBJAMG@?6Header?5Parser?3?5bh_spc_4bytes?5?6?$AA@" = comdat any

$"\01??_C@_0BM@LJCIIAMF@?6Header?5Parser?3?5PicoQuant?5?6?$AA@" = comdat any

$"\01??_C@_0BA@INEDNOAD@?6Filesize?3?5?$CFlld?$AA@" = comdat any

$"\01?_OptionsStorage@?1??__local_stdio_printf_options@@9@4_KA" = comdat any

@"\01?order_gurantee@@3_JA" = global i64 0, align 8
@SYNCRate_pspr = global i64 0, align 8
@TTRes_pspr = global i64 0, align 8
@DTRes_pspr = global i64 0, align 8
@NumRecords = global i64 0, align 8
@RecordType = global i64 0, align 8
@BytesofRecords = global i64 0, align 8
@TTF_header_offset = global i64 0, align 8
@TTF_filesize = global i64 0, align 8
@"\01??_C@_0EA@FDLFOLNG@?6Becker?5?$CG?5Hickl?5SPC?9134?1144?1154?1@" = linkonce_odr unnamed_addr constant [64 x i8] c"\0ABecker & Hickl SPC-134/144/154/830 timetag file has no header.\00", comdat, align 1
@"\01??_C@_0BL@CDCKOJBK@?6RecordType?3?5bh_spc_4bytes?$AA@" = linkonce_odr unnamed_addr constant [27 x i8] c"\0ARecordType: bh_spc_4bytes\00", comdat, align 1
@"\01??_C@_0DA@FODAHEFK@?6Swebian?5Instrument?5timetag?5file@" = linkonce_odr unnamed_addr constant [48 x i8] c"\0ASwebian Instrument timetag file has no header.\00", comdat, align 1
@"\01??_C@_0CI@PMHKJGIO@?6RecordType?3?5SwebianInstrument?51@" = linkonce_odr unnamed_addr constant [40 x i8] c"\0ARecordType: SwebianInstrument 16-bytes\00", comdat, align 1
@"\01??_C@_0CN@NEMBOFCA@?6?5?$FLERROR?$FNError?5when?5reading?5head@" = linkonce_odr unnamed_addr constant [45 x i8] c"\0A [ERROR]Error when reading header, aborted.\00", comdat, align 1
@"\01??_C@_0DH@LIKDKBGP@?6quTAU_FORMAT_BINARY?5file?5header@" = linkonce_odr unnamed_addr constant [55 x i8] c"\0AquTAU_FORMAT_BINARY file header is read, but ignored.\00", comdat, align 1
@"\01??_C@_0CK@BIOCEFDD@?6RecordType?3?5quTAU_FORMAT_BINARY@" = linkonce_odr unnamed_addr constant [42 x i8] c"\0ARecordType: quTAU_FORMAT_BINARY 10-bytes\00", comdat, align 1
@"\01??_C@_0DL@ILPAIDLG@?6quTAU_FORMAT_COMPRESSED?5file?5he@" = linkonce_odr unnamed_addr constant [59 x i8] c"\0AquTAU_FORMAT_COMPRESSED file header is read, but ignored.\00", comdat, align 1
@"\01??_C@_0CN@MLAGFJGP@?6RecordType?3?5quTAU_FORMAT_COMPRE@" = linkonce_odr unnamed_addr constant [45 x i8] c"\0ARecordType: quTAU_FORMAT_COMPRESSED 5-bytes\00", comdat, align 1
@"\01?TagHead@@3UTgHd@@A" = global %struct.TgHd zeroinitializer, align 8
@"\01??_C@_0CJ@BKHAGGLC@?6?5?$FLERROR?$FN?6error?5reading?5header?0?5@" = linkonce_odr unnamed_addr constant [41 x i8] c"\0A [ERROR]\0Aerror reading header, aborted.\00", comdat, align 1
@"\01??_C@_0BH@PAEBLGPJ@?6PTU?5file?5Header?3?5?$CFs?5?6?$AA@" = linkonce_odr unnamed_addr constant [23 x i8] c"\0APTU file Header: %s \0A\00", comdat, align 1
@"\01??_C@_0BD@GFPKCHLP@?6?6Incomplete?5File?4?$AA@" = linkonce_odr unnamed_addr constant [19 x i8] c"\0A\0AIncomplete File.\00", comdat, align 1
@"\01??_C@_06BPGFIOAL@?$CFs?$CI?$CFd?$CJ?$AA@" = linkonce_odr unnamed_addr constant [7 x i8] c"%s(%d)\00", comdat, align 1
@"\01??_C@_06PHODKAKM@?6?$CF?940s?$AA@" = linkonce_odr unnamed_addr constant [7 x i8] c"\0A%-40s\00", comdat, align 1
@"\01??_C@_0M@HECCAEGL@?$DMempty?5Tag?$DO?$AA@" = linkonce_odr unnamed_addr constant [12 x i8] c"<empty Tag>\00", comdat, align 1
@"\01??_C@_04HPMIDMKH@True?$AA@" = linkonce_odr unnamed_addr constant [5 x i8] c"True\00", comdat, align 1
@"\01??_C@_05MKDOIIA@False?$AA@" = linkonce_odr unnamed_addr constant [6 x i8] c"False\00", comdat, align 1
@"\01??_C@_02DKCKIIND@?$CFs?$AA@" = linkonce_odr unnamed_addr constant [3 x i8] c"%s\00", comdat, align 1
@"\01??_C@_04BFAHMMK@?$CFlld?$AA@" = linkonce_odr unnamed_addr constant [5 x i8] c"%lld\00", comdat, align 1
@"\01??_C@_0BJ@EFFGOIKF@TTResult_NumberOfRecords?$AA@" = linkonce_odr unnamed_addr constant [25 x i8] c"TTResult_NumberOfRecords\00", comdat, align 1
@"\01??_C@_0BL@NBAMDLKF@TTResultFormat_TTTRRecType?$AA@" = linkonce_odr unnamed_addr constant [27 x i8] c"TTResultFormat_TTTRRecType\00", comdat, align 1
@"\01??_C@_09DGLOBCMH@0x?$CF16?416X?$AA@" = linkonce_odr unnamed_addr constant [10 x i8] c"0x%16.16X\00", comdat, align 1
@"\01??_C@_02LDDGBJKG@?$CFE?$AA@" = linkonce_odr unnamed_addr constant [3 x i8] c"%E\00", comdat, align 1
@"\01??_C@_0BE@MLJFPCOI@MeasDesc_Resolution?$AA@" = linkonce_odr unnamed_addr constant [20 x i8] c"MeasDesc_Resolution\00", comdat, align 1
@"\01??_C@_0BK@JGMIOCJJ@MeasDesc_GlobalResolution?$AA@" = linkonce_odr unnamed_addr constant [26 x i8] c"MeasDesc_GlobalResolution\00", comdat, align 1
@"\01??_C@_0BO@ENEJMDLG@?$DMFloat?5Array?5with?5?$CFd?5Entries?$DO?$AA@" = linkonce_odr unnamed_addr constant [30 x i8] c"<Float Array with %d Entries>\00", comdat, align 1
@"\01??_C@_01LOCGONAA@?$AA?$AA@" = linkonce_odr unnamed_addr constant [2 x i8] zeroinitializer, comdat, align 1
@"\01??_C@_0BC@KFPMDKOJ@?6Incomplete?5File?4?$AA@" = linkonce_odr unnamed_addr constant [18 x i8] c"\0AIncomplete File.\00", comdat, align 1
@"\01??_C@_15GANGMFKL@?$AA?$CF?$AAs?$AA?$AA@" = linkonce_odr unnamed_addr constant [3 x i16] [i16 37, i16 115, i16 0], comdat, align 2
@"\01??_C@_0CA@FNNAPBCN@?$DMBinary?5Blob?5contains?5?$CFd?5Bytes?$DO?$AA@" = linkonce_odr unnamed_addr constant [32 x i8] c"<Binary Blob contains %d Bytes>\00", comdat, align 1
@"\01??_C@_0CM@NLBAOIPI@Illegal?5Type?5identifier?5found?$CB?5B@" = linkonce_odr unnamed_addr constant [44 x i8] c"Illegal Type identifier found! Broken file?\00", comdat, align 1
@"\01??_C@_0L@BKLBDFDP@Header_End?$AA@" = linkonce_odr unnamed_addr constant [11 x i8] c"Header_End\00", comdat, align 1
@"\01??_C@_0BL@HPPLJEMK@?6?6?9?9?9?9?9?9?9?9?9?9?9?9?9?9?9?9?9?9?9?9?9?9?9?6?$AA@" = linkonce_odr unnamed_addr constant [27 x i8] c"\0A\0A-----------------------\0A\00", comdat, align 1
@"\01??_C@_0BD@EHFANJBB@?6PicoHarp?5T2?5data?6?$AA@" = linkonce_odr unnamed_addr constant [19 x i8] c"\0APicoHarp T2 data\0A\00", comdat, align 1
@"\01??_C@_0BH@NKCKBLM@?6HydraHarp?5V1?5T2?5data?6?$AA@" = linkonce_odr unnamed_addr constant [23 x i8] c"\0AHydraHarp V1 T2 data\0A\00", comdat, align 1
@"\01??_C@_0BH@JEEAMHLN@?6HydraHarp?5V2?5T2?5data?6?$AA@" = linkonce_odr unnamed_addr constant [23 x i8] c"\0AHydraHarp V2 T2 data\0A\00", comdat, align 1
@"\01??_C@_0BH@DICKBJCF@?6TimeHarp260N?5T2?5data?6?$AA@" = linkonce_odr unnamed_addr constant [23 x i8] c"\0ATimeHarp260N T2 data\0A\00", comdat, align 1
@"\01??_C@_0BH@MEKKPGOI@?6TimeHarp260P?5T2?5data?6?$AA@" = linkonce_odr unnamed_addr constant [23 x i8] c"\0ATimeHarp260P T2 data\0A\00", comdat, align 1
@"\01??_C@_0BD@ILPKNJIP@?6PicoHarp?5T3?5data?6?$AA@" = linkonce_odr unnamed_addr constant [19 x i8] c"\0APicoHarp T3 data\0A\00", comdat, align 1
@"\01??_C@_0BH@MBAIKBCC@?6HydraHarp?5V1?5T3?5data?6?$AA@" = linkonce_odr unnamed_addr constant [23 x i8] c"\0AHydraHarp V1 T3 data\0A\00", comdat, align 1
@"\01??_C@_0BH@FIOKMHCD@?6HydraHarp?5V2?5T3?5data?6?$AA@" = linkonce_odr unnamed_addr constant [23 x i8] c"\0AHydraHarp V2 T3 data\0A\00", comdat, align 1
@"\01??_C@_0BH@PEIABJLL@?6TimeHarp260N?5T3?5data?6?$AA@" = linkonce_odr unnamed_addr constant [23 x i8] c"\0ATimeHarp260N T3 data\0A\00", comdat, align 1
@"\01??_C@_0BH@IAAPGHG@?6TimeHarp260P?5T3?5data?6?$AA@" = linkonce_odr unnamed_addr constant [23 x i8] c"\0ATimeHarp260P T3 data\0A\00", comdat, align 1
@"\01??_C@_0CM@KKBPPLIM@?6Unknown?5time?9tag?5record?5type?3?50@" = linkonce_odr unnamed_addr constant [44 x i8] c"\0AUnknown time-tag record type: 0x%X\0A 0x%X\0A \00", comdat, align 1
@"\01??_C@_0P@HHDHBNCE@?6File?5name?3?5?$CFs?$AA@" = linkonce_odr unnamed_addr constant [15 x i8] c"\0AFile name: %s\00", comdat, align 1
@"\01??_C@_02JDPG@rb?$AA@" = linkonce_odr unnamed_addr constant [3 x i8] c"rb\00", comdat, align 1
@"\01??_C@_0DC@PALJOGBL@?6?5?$FLERROR?$FNCan?5not?5open?5time?9tagge@" = linkonce_odr unnamed_addr constant [50 x i8] c"\0A [ERROR]Can not open time-tagged file, aborting.\00", comdat, align 1
@"\01??_C@_0CJ@FCCDKPDO@?6?5?$FLERROR?$FNFailed?5to?5read?5header?0?5@" = linkonce_odr unnamed_addr constant [41 x i8] c"\0A [ERROR]Failed to read header, aborted.\00", comdat, align 1
@"\01??_C@_06OMFAFKCA@PQTTTR?$AA@" = linkonce_odr unnamed_addr constant [7 x i8] c"PQTTTR\00", comdat, align 1
@"\01??_C@_04CHFOFOOE@?$IH?$LD?$JB?z?$AA@" = linkonce_odr unnamed_addr constant [5 x i8] c"\87\B3\91\FA\00", comdat, align 1
@"\01??_C@_0CG@HMLPIAGM@?6Header?5Parser?3?5quTAU_FORMAT_BIN@" = linkonce_odr unnamed_addr constant [38 x i8] c"\0AHeader Parser: quTAU_FORMAT_BINARY \0A\00", comdat, align 1
@"\01??_C@_0CF@NEHPJAOD@?6Header?5Parser?3?5Swebian?5Instrume@" = linkonce_odr unnamed_addr constant [37 x i8] c"\0AHeader Parser: Swebian Instrument \0A\00", comdat, align 1
@"\01??_C@_0CK@FCNMCNDN@?6Header?5Parser?3?5quTAU_FORMAT_COM@" = linkonce_odr unnamed_addr constant [42 x i8] c"\0AHeader Parser: quTAU_FORMAT_COMPRESSED \0A\00", comdat, align 1
@"\01??_C@_0CA@KMEBJAMG@?6Header?5Parser?3?5bh_spc_4bytes?5?6?$AA@" = linkonce_odr unnamed_addr constant [32 x i8] c"\0AHeader Parser: bh_spc_4bytes \0A\00", comdat, align 1
@"\01??_C@_0BM@LJCIIAMF@?6Header?5Parser?3?5PicoQuant?5?6?$AA@" = linkonce_odr unnamed_addr constant [28 x i8] c"\0AHeader Parser: PicoQuant \0A\00", comdat, align 1
@"\01??_C@_0BA@INEDNOAD@?6Filesize?3?5?$CFlld?$AA@" = linkonce_odr unnamed_addr constant [16 x i8] c"\0AFilesize: %lld\00", comdat, align 1
@"\01?_OptionsStorage@?1??__local_stdio_printf_options@@9@4_KA" = linkonce_odr global i64 0, comdat, align 8

; Function Attrs: alwaysinline uwtable
define i32 @"\01?bh_4bytes_header_parser@@YAHQEAD@Z"(i8*) #0 {
  %2 = alloca i8*, align 8
  store i8* %0, i8** %2, align 8
  %3 = call i32 (i8*, ...) @printf(i8* getelementptr inbounds ([64 x i8], [64 x i8]* @"\01??_C@_0EA@FDLFOLNG@?6Becker?5?$CG?5Hickl?5SPC?9134?1144?1154?1@", i32 0, i32 0))
  %4 = sext i32 %3 to i64
  store i64 %4, i64* @"\01?order_gurantee@@3_JA", align 8
  %5 = load i8*, i8** %2, align 8
  %6 = bitcast i8* %5 to i16*
  %7 = getelementptr inbounds i16, i16* %6, i64 0
  %8 = load i16, i16* %7, align 2
  %9 = zext i16 %8 to i64
  store i64 %9, i64* @SYNCRate_pspr, align 8
  store i64 1, i64* @DTRes_pspr, align 8
  store i64 0, i64* @TTRes_pspr, align 8
  store i64 3, i64* @RecordType, align 8
  %10 = call i32 (i8*, ...) @printf(i8* getelementptr inbounds ([27 x i8], [27 x i8]* @"\01??_C@_0BL@CDCKOJBK@?6RecordType?3?5bh_spc_4bytes?$AA@", i32 0, i32 0))
  %11 = sext i32 %10 to i64
  store i64 %11, i64* @"\01?order_gurantee@@3_JA", align 8
  store i64 4, i64* @BytesofRecords, align 8
  store i64 4, i64* @TTF_header_offset, align 8
  ret i32 0
}

; Function Attrs: noinline optnone uwtable
define linkonce_odr i32 @printf(i8*, ...) #1 comdat {
  %2 = alloca i8*, align 8
  %3 = alloca i32, align 4
  %4 = alloca i8*, align 8
  store i8* %0, i8** %2, align 8
  %5 = bitcast i8** %4 to i8*
  call void @llvm.va_start(i8* %5)
  %6 = load i8*, i8** %4, align 8
  %7 = load i8*, i8** %2, align 8
  %8 = call %struct._iobuf* @__acrt_iob_func(i32 1)
  %9 = call i32 @_vfprintf_l(%struct._iobuf* %8, i8* %7, %struct.__crt_locale_pointers* null, i8* %6)
  store i32 %9, i32* %3, align 4
  %10 = bitcast i8** %4 to i8*
  call void @llvm.va_end(i8* %10)
  %11 = load i32, i32* %3, align 4
  ret i32 %11
}

; Function Attrs: alwaysinline uwtable
define i32 @"\01?Swebian_header_parser@@YAHXZ"() #0 {
  %1 = call i32 (i8*, ...) @printf(i8* getelementptr inbounds ([48 x i8], [48 x i8]* @"\01??_C@_0DA@FODAHEFK@?6Swebian?5Instrument?5timetag?5file@", i32 0, i32 0))
  %2 = sext i32 %1 to i64
  store i64 %2, i64* @"\01?order_gurantee@@3_JA", align 8
  store i64 0, i64* @SYNCRate_pspr, align 8
  store i64 1, i64* @TTRes_pspr, align 8
  store i64 1, i64* @DTRes_pspr, align 8
  store i64 1, i64* @RecordType, align 8
  %3 = call i32 (i8*, ...) @printf(i8* getelementptr inbounds ([40 x i8], [40 x i8]* @"\01??_C@_0CI@PMHKJGIO@?6RecordType?3?5SwebianInstrument?51@", i32 0, i32 0))
  %4 = sext i32 %3 to i64
  store i64 %4, i64* @"\01?order_gurantee@@3_JA", align 8
  store i64 16, i64* @BytesofRecords, align 8
  store i64 0, i64* @TTF_header_offset, align 8
  ret i32 0
}

; Function Attrs: alwaysinline uwtable
define i32 @"\01?quTAU_FORMAT_BINARY_header_parser@@YAHPEAU_iobuf@@@Z"(%struct._iobuf*) #0 {
  %2 = alloca i32, align 4
  %3 = alloca %struct._iobuf*, align 8
  %4 = alloca [32 x i8], align 16
  store %struct._iobuf* %0, %struct._iobuf** %3, align 8
  %5 = load %struct._iobuf*, %struct._iobuf** %3, align 8
  %6 = bitcast [32 x i8]* %4 to i8*
  %7 = call i64 @fread(i8* %6, i64 1, i64 32, %struct._iobuf* %5)
  %8 = icmp ne i64 %7, 32
  br i1 %8, label %9, label %12

; <label>:9:                                      ; preds = %1
  %10 = call i32 (i8*, ...) @printf(i8* getelementptr inbounds ([45 x i8], [45 x i8]* @"\01??_C@_0CN@NEMBOFCA@?6?5?$FLERROR?$FNError?5when?5reading?5head@", i32 0, i32 0))
  %11 = sext i32 %10 to i64
  store i64 %11, i64* @"\01?order_gurantee@@3_JA", align 8
  store i32 -1, i32* %2, align 4
  br label %21

; <label>:12:                                     ; preds = %1
  %13 = call i32 (i8*, ...) @printf(i8* getelementptr inbounds ([55 x i8], [55 x i8]* @"\01??_C@_0DH@LIKDKBGP@?6quTAU_FORMAT_BINARY?5file?5header@", i32 0, i32 0))
  %14 = sext i32 %13 to i64
  store i64 %14, i64* @"\01?order_gurantee@@3_JA", align 8
  store i64 0, i64* @RecordType, align 8
  store i64 10, i64* @BytesofRecords, align 8
  %15 = call i32 (i8*, ...) @printf(i8* getelementptr inbounds ([42 x i8], [42 x i8]* @"\01??_C@_0CK@BIOCEFDD@?6RecordType?3?5quTAU_FORMAT_BINARY@", i32 0, i32 0))
  %16 = sext i32 %15 to i64
  store i64 %16, i64* @"\01?order_gurantee@@3_JA", align 8
  store i64 1, i64* @TTRes_pspr, align 8
  %17 = load i64, i64* @TTRes_pspr, align 8
  store i64 %17, i64* @DTRes_pspr, align 8
  store i64 1249, i64* @SYNCRate_pspr, align 8
  %18 = load %struct._iobuf*, %struct._iobuf** %3, align 8
  %19 = call i32 @ftell(%struct._iobuf* %18)
  %20 = sext i32 %19 to i64
  store i64 %20, i64* @TTF_header_offset, align 8
  store i32 0, i32* %2, align 4
  br label %21

; <label>:21:                                     ; preds = %12, %9
  %22 = load i32, i32* %2, align 4
  ret i32 %22
}

declare i64 @fread(i8*, i64, i64, %struct._iobuf*) #2

declare i32 @ftell(%struct._iobuf*) #2

; Function Attrs: alwaysinline uwtable
define i32 @"\01?quTAU_FORMAT_COMPRESSED_header_parser@@YAHPEAU_iobuf@@@Z"(%struct._iobuf*) #0 {
  %2 = alloca i32, align 4
  %3 = alloca %struct._iobuf*, align 8
  %4 = alloca [32 x i8], align 16
  store %struct._iobuf* %0, %struct._iobuf** %3, align 8
  %5 = load %struct._iobuf*, %struct._iobuf** %3, align 8
  %6 = bitcast [32 x i8]* %4 to i8*
  %7 = call i64 @fread(i8* %6, i64 1, i64 32, %struct._iobuf* %5)
  %8 = icmp ne i64 %7, 32
  br i1 %8, label %9, label %12

; <label>:9:                                      ; preds = %1
  %10 = call i32 (i8*, ...) @printf(i8* getelementptr inbounds ([45 x i8], [45 x i8]* @"\01??_C@_0CN@NEMBOFCA@?6?5?$FLERROR?$FNError?5when?5reading?5head@", i32 0, i32 0))
  %11 = sext i32 %10 to i64
  store i64 %11, i64* @"\01?order_gurantee@@3_JA", align 8
  store i32 -1, i32* %2, align 4
  br label %21

; <label>:12:                                     ; preds = %1
  %13 = call i32 (i8*, ...) @printf(i8* getelementptr inbounds ([59 x i8], [59 x i8]* @"\01??_C@_0DL@ILPAIDLG@?6quTAU_FORMAT_COMPRESSED?5file?5he@", i32 0, i32 0))
  %14 = sext i32 %13 to i64
  store i64 %14, i64* @"\01?order_gurantee@@3_JA", align 8
  store i64 0, i64* @RecordType, align 8
  store i64 5, i64* @BytesofRecords, align 8
  %15 = call i32 (i8*, ...) @printf(i8* getelementptr inbounds ([45 x i8], [45 x i8]* @"\01??_C@_0CN@MLAGFJGP@?6RecordType?3?5quTAU_FORMAT_COMPRE@", i32 0, i32 0))
  %16 = sext i32 %15 to i64
  store i64 %16, i64* @"\01?order_gurantee@@3_JA", align 8
  store i64 1, i64* @TTRes_pspr, align 8
  %17 = load i64, i64* @TTRes_pspr, align 8
  store i64 %17, i64* @DTRes_pspr, align 8
  store i64 1249, i64* @SYNCRate_pspr, align 8
  %18 = load %struct._iobuf*, %struct._iobuf** %3, align 8
  %19 = call i32 @ftell(%struct._iobuf* %18)
  %20 = sext i32 %19 to i64
  store i64 %20, i64* @TTF_header_offset, align 8
  store i32 0, i32* %2, align 4
  br label %21

; <label>:21:                                     ; preds = %12, %9
  %22 = load i32, i32* %2, align 4
  ret i32 %22
}

; Function Attrs: noinline nounwind optnone uwtable
define i64 @"\01?TDateTime_TimeT@@YA_JN@Z"(double) #3 {
  %2 = alloca double, align 8
  %3 = alloca i64, align 8
  store double %0, double* %2, align 8
  %4 = load double, double* %2, align 8
  %5 = fsub double %4, 2.556900e+04
  %6 = fmul double %5, 8.640000e+04
  %7 = fptosi double %6 to i32
  %8 = sext i32 %7 to i64
  store i64 %8, i64* %3, align 8
  %9 = load i64, i64* %3, align 8
  ret i64 %9
}

; Function Attrs: alwaysinline uwtable
define i32 @"\01?PicoQuant_header_parser@@YAHPEAU_iobuf@@@Z"(%struct._iobuf*) #0 {
  %2 = alloca i32, align 4
  %3 = alloca %struct._iobuf*, align 8
  %4 = alloca i32, align 4
  %5 = alloca i8*, align 8
  %6 = alloca i16*, align 8
  %7 = alloca [8 x i8], align 1
  %8 = alloca [40 x i8], align 16
  %9 = alloca double, align 8
  %10 = alloca double, align 8
  %11 = alloca i64, align 8
  %12 = alloca i8, align 1
  store %struct._iobuf* %0, %struct._iobuf** %3, align 8
  %13 = load %struct._iobuf*, %struct._iobuf** %3, align 8
  %14 = bitcast [8 x i8]* %7 to i8*
  %15 = call i64 @fread(i8* %14, i64 1, i64 8, %struct._iobuf* %13)
  %16 = trunc i64 %15 to i32
  store i32 %16, i32* %4, align 4
  %17 = load i32, i32* %4, align 4
  %18 = sext i32 %17 to i64
  %19 = icmp ne i64 %18, 8
  br i1 %19, label %20, label %23

; <label>:20:                                     ; preds = %1
  %21 = call i32 (i8*, ...) @printf(i8* getelementptr inbounds ([41 x i8], [41 x i8]* @"\01??_C@_0CJ@BKHAGGLC@?6?5?$FLERROR?$FN?6error?5reading?5header?0?5@", i32 0, i32 0))
  %22 = sext i32 %21 to i64
  store i64 %22, i64* @"\01?order_gurantee@@3_JA", align 8
  br label %213

; <label>:23:                                     ; preds = %1
  %24 = getelementptr inbounds [8 x i8], [8 x i8]* %7, i32 0, i32 0
  %25 = call i32 (i8*, ...) @printf(i8* getelementptr inbounds ([23 x i8], [23 x i8]* @"\01??_C@_0BH@PAEBLGPJ@?6PTU?5file?5Header?3?5?$CFs?5?6?$AA@", i32 0, i32 0), i8* %24)
  %26 = sext i32 %25 to i64
  store i64 %26, i64* @"\01?order_gurantee@@3_JA", align 8
  br label %27

; <label>:27:                                     ; preds = %162, %23
  %28 = load %struct._iobuf*, %struct._iobuf** %3, align 8
  %29 = call i64 @fread(i8* getelementptr inbounds (%struct.TgHd, %struct.TgHd* @"\01?TagHead@@3UTgHd@@A", i32 0, i32 0, i32 0), i64 1, i64 48, %struct._iobuf* %28)
  %30 = trunc i64 %29 to i32
  store i32 %30, i32* %4, align 4
  %31 = load i32, i32* %4, align 4
  %32 = sext i32 %31 to i64
  %33 = icmp ne i64 %32, 48
  br i1 %33, label %34, label %37

; <label>:34:                                     ; preds = %27
  %35 = call i32 (i8*, ...) @printf(i8* getelementptr inbounds ([19 x i8], [19 x i8]* @"\01??_C@_0BD@GFPKCHLP@?6?6Incomplete?5File?4?$AA@", i32 0, i32 0))
  %36 = sext i32 %35 to i64
  store i64 %36, i64* @"\01?order_gurantee@@3_JA", align 8
  br label %213

; <label>:37:                                     ; preds = %27
  %38 = getelementptr inbounds [40 x i8], [40 x i8]* %8, i32 0, i32 0
  %39 = call i8* @strcpy(i8* %38, i8* getelementptr inbounds (%struct.TgHd, %struct.TgHd* @"\01?TagHead@@3UTgHd@@A", i32 0, i32 0, i32 0))
  %40 = load i32, i32* getelementptr inbounds (%struct.TgHd, %struct.TgHd* @"\01?TagHead@@3UTgHd@@A", i32 0, i32 1), align 8
  %41 = icmp sgt i32 %40, -1
  br i1 %41, label %42, label %46

; <label>:42:                                     ; preds = %37
  %43 = load i32, i32* getelementptr inbounds (%struct.TgHd, %struct.TgHd* @"\01?TagHead@@3UTgHd@@A", i32 0, i32 1), align 8
  %44 = getelementptr inbounds [40 x i8], [40 x i8]* %8, i32 0, i32 0
  %45 = call i32 (i8*, i8*, ...) @sprintf(i8* %44, i8* getelementptr inbounds ([7 x i8], [7 x i8]* @"\01??_C@_06BPGFIOAL@?$CFs?$CI?$CFd?$CJ?$AA@", i32 0, i32 0), i8* getelementptr inbounds (%struct.TgHd, %struct.TgHd* @"\01?TagHead@@3UTgHd@@A", i32 0, i32 0, i32 0), i32 %43)
  br label %46

; <label>:46:                                     ; preds = %42, %37
  %47 = getelementptr inbounds [40 x i8], [40 x i8]* %8, i32 0, i32 0
  %48 = call i32 (i8*, ...) @printf(i8* getelementptr inbounds ([7 x i8], [7 x i8]* @"\01??_C@_06PHODKAKM@?6?$CF?940s?$AA@", i32 0, i32 0), i8* %47)
  %49 = load i32, i32* getelementptr inbounds (%struct.TgHd, %struct.TgHd* @"\01?TagHead@@3UTgHd@@A", i32 0, i32 2), align 4
  switch i32 %49, label %159 [
    i32 -65528, label %50
    i32 8, label %52
    i32 268435464, label %58
    i32 285212680, label %71
    i32 301989896, label %74
    i32 536870920, label %77
    i32 537001983, label %96
    i32 553648136, label %104
    i32 1073872895, label %110
    i32 1073938431, label %129
    i32 -1, label %152
  ]

; <label>:50:                                     ; preds = %46
  %51 = call i32 (i8*, ...) @printf(i8* getelementptr inbounds ([12 x i8], [12 x i8]* @"\01??_C@_0M@HECCAEGL@?$DMempty?5Tag?$DO?$AA@", i32 0, i32 0))
  br label %161

; <label>:52:                                     ; preds = %46
  %53 = load i64, i64* getelementptr inbounds (%struct.TgHd, %struct.TgHd* @"\01?TagHead@@3UTgHd@@A", i32 0, i32 3), align 8
  %54 = icmp ne i64 %53, 0
  %55 = zext i1 %54 to i64
  %56 = select i1 %54, i8* getelementptr inbounds ([5 x i8], [5 x i8]* @"\01??_C@_04HPMIDMKH@True?$AA@", i32 0, i32 0), i8* getelementptr inbounds ([6 x i8], [6 x i8]* @"\01??_C@_05MKDOIIA@False?$AA@", i32 0, i32 0)
  %57 = call i32 (i8*, ...) @printf(i8* getelementptr inbounds ([3 x i8], [3 x i8]* @"\01??_C@_02DKCKIIND@?$CFs?$AA@", i32 0, i32 0), i8* %56)
  br label %161

; <label>:58:                                     ; preds = %46
  %59 = load i64, i64* getelementptr inbounds (%struct.TgHd, %struct.TgHd* @"\01?TagHead@@3UTgHd@@A", i32 0, i32 3), align 8
  %60 = call i32 (i8*, ...) @printf(i8* getelementptr inbounds ([5 x i8], [5 x i8]* @"\01??_C@_04BFAHMMK@?$CFlld?$AA@", i32 0, i32 0), i64 %59)
  %61 = call i32 @strcmp(i8* getelementptr inbounds (%struct.TgHd, %struct.TgHd* @"\01?TagHead@@3UTgHd@@A", i32 0, i32 0, i32 0), i8* getelementptr inbounds ([25 x i8], [25 x i8]* @"\01??_C@_0BJ@EFFGOIKF@TTResult_NumberOfRecords?$AA@", i32 0, i32 0))
  %62 = icmp eq i32 %61, 0
  br i1 %62, label %63, label %65

; <label>:63:                                     ; preds = %58
  %64 = load i64, i64* getelementptr inbounds (%struct.TgHd, %struct.TgHd* @"\01?TagHead@@3UTgHd@@A", i32 0, i32 3), align 8
  store i64 %64, i64* @NumRecords, align 8
  br label %65

; <label>:65:                                     ; preds = %63, %58
  %66 = call i32 @strcmp(i8* getelementptr inbounds (%struct.TgHd, %struct.TgHd* @"\01?TagHead@@3UTgHd@@A", i32 0, i32 0, i32 0), i8* getelementptr inbounds ([27 x i8], [27 x i8]* @"\01??_C@_0BL@NBAMDLKF@TTResultFormat_TTTRRecType?$AA@", i32 0, i32 0))
  %67 = icmp eq i32 %66, 0
  br i1 %67, label %68, label %70

; <label>:68:                                     ; preds = %65
  %69 = load i64, i64* getelementptr inbounds (%struct.TgHd, %struct.TgHd* @"\01?TagHead@@3UTgHd@@A", i32 0, i32 3), align 8
  store i64 %69, i64* @RecordType, align 8
  br label %70

; <label>:70:                                     ; preds = %68, %65
  br label %161

; <label>:71:                                     ; preds = %46
  %72 = load i64, i64* getelementptr inbounds (%struct.TgHd, %struct.TgHd* @"\01?TagHead@@3UTgHd@@A", i32 0, i32 3), align 8
  %73 = call i32 (i8*, ...) @printf(i8* getelementptr inbounds ([10 x i8], [10 x i8]* @"\01??_C@_09DGLOBCMH@0x?$CF16?416X?$AA@", i32 0, i32 0), i64 %72)
  br label %161

; <label>:74:                                     ; preds = %46
  %75 = load i64, i64* getelementptr inbounds (%struct.TgHd, %struct.TgHd* @"\01?TagHead@@3UTgHd@@A", i32 0, i32 3), align 8
  %76 = call i32 (i8*, ...) @printf(i8* getelementptr inbounds ([10 x i8], [10 x i8]* @"\01??_C@_09DGLOBCMH@0x?$CF16?416X?$AA@", i32 0, i32 0), i64 %75)
  br label %161

; <label>:77:                                     ; preds = %46
  %78 = load double, double* bitcast (i64* getelementptr inbounds (%struct.TgHd, %struct.TgHd* @"\01?TagHead@@3UTgHd@@A", i32 0, i32 3) to double*), align 8
  %79 = call i32 (i8*, ...) @printf(i8* getelementptr inbounds ([3 x i8], [3 x i8]* @"\01??_C@_02LDDGBJKG@?$CFE?$AA@", i32 0, i32 0), double %78)
  %80 = call i32 @strcmp(i8* getelementptr inbounds (%struct.TgHd, %struct.TgHd* @"\01?TagHead@@3UTgHd@@A", i32 0, i32 0, i32 0), i8* getelementptr inbounds ([20 x i8], [20 x i8]* @"\01??_C@_0BE@MLJFPCOI@MeasDesc_Resolution?$AA@", i32 0, i32 0))
  %81 = icmp eq i32 %80, 0
  br i1 %81, label %82, label %87

; <label>:82:                                     ; preds = %77
  %83 = load double, double* bitcast (i64* getelementptr inbounds (%struct.TgHd, %struct.TgHd* @"\01?TagHead@@3UTgHd@@A", i32 0, i32 3) to double*), align 8
  store double %83, double* %9, align 8
  %84 = load double, double* %9, align 8
  %85 = fmul double %84, 1.000000e+12
  %86 = fptosi double %85 to i64
  store i64 %86, i64* @DTRes_pspr, align 8
  br label %87

; <label>:87:                                     ; preds = %82, %77
  %88 = call i32 @strcmp(i8* getelementptr inbounds (%struct.TgHd, %struct.TgHd* @"\01?TagHead@@3UTgHd@@A", i32 0, i32 0, i32 0), i8* getelementptr inbounds ([26 x i8], [26 x i8]* @"\01??_C@_0BK@JGMIOCJJ@MeasDesc_GlobalResolution?$AA@", i32 0, i32 0))
  %89 = icmp eq i32 %88, 0
  br i1 %89, label %90, label %95

; <label>:90:                                     ; preds = %87
  %91 = load double, double* bitcast (i64* getelementptr inbounds (%struct.TgHd, %struct.TgHd* @"\01?TagHead@@3UTgHd@@A", i32 0, i32 3) to double*), align 8
  store double %91, double* %10, align 8
  %92 = load double, double* %10, align 8
  %93 = fmul double %92, 1.000000e+12
  %94 = fptosi double %93 to i64
  store i64 %94, i64* @TTRes_pspr, align 8
  br label %95

; <label>:95:                                     ; preds = %90, %87
  br label %161

; <label>:96:                                     ; preds = %46
  %97 = load i64, i64* getelementptr inbounds (%struct.TgHd, %struct.TgHd* @"\01?TagHead@@3UTgHd@@A", i32 0, i32 3), align 8
  %98 = udiv i64 %97, 8
  %99 = call i32 (i8*, ...) @printf(i8* getelementptr inbounds ([30 x i8], [30 x i8]* @"\01??_C@_0BO@ENEJMDLG@?$DMFloat?5Array?5with?5?$CFd?5Entries?$DO?$AA@", i32 0, i32 0), i64 %98)
  %100 = load i64, i64* getelementptr inbounds (%struct.TgHd, %struct.TgHd* @"\01?TagHead@@3UTgHd@@A", i32 0, i32 3), align 8
  %101 = trunc i64 %100 to i32
  %102 = load %struct._iobuf*, %struct._iobuf** %3, align 8
  %103 = call i32 @fseek(%struct._iobuf* %102, i32 %101, i32 1)
  br label %161

; <label>:104:                                    ; preds = %46
  %105 = load double, double* bitcast (i64* getelementptr inbounds (%struct.TgHd, %struct.TgHd* @"\01?TagHead@@3UTgHd@@A", i32 0, i32 3) to double*), align 8
  %106 = call i64 @"\01?TDateTime_TimeT@@YA_JN@Z"(double %105)
  store i64 %106, i64* %11, align 8
  %107 = call %struct.tm* @"\01?gmtime@@YAPEAUtm@@QEB_J@Z"(i64* %11)
  %108 = call i8* @asctime(%struct.tm* %107)
  %109 = call i32 (i8*, ...) @printf(i8* getelementptr inbounds ([3 x i8], [3 x i8]* @"\01??_C@_02DKCKIIND@?$CFs?$AA@", i32 0, i32 0), i8* %108, i8* getelementptr inbounds ([2 x i8], [2 x i8]* @"\01??_C@_01LOCGONAA@?$AA?$AA@", i32 0, i32 0))
  br label %161

; <label>:110:                                    ; preds = %46
  %111 = load i64, i64* getelementptr inbounds (%struct.TgHd, %struct.TgHd* @"\01?TagHead@@3UTgHd@@A", i32 0, i32 3), align 8
  %112 = call noalias i8* @calloc(i64 %111, i64 1)
  store i8* %112, i8** %5, align 8
  %113 = load %struct._iobuf*, %struct._iobuf** %3, align 8
  %114 = load i64, i64* getelementptr inbounds (%struct.TgHd, %struct.TgHd* @"\01?TagHead@@3UTgHd@@A", i32 0, i32 3), align 8
  %115 = load i8*, i8** %5, align 8
  %116 = call i64 @fread(i8* %115, i64 1, i64 %114, %struct._iobuf* %113)
  %117 = trunc i64 %116 to i32
  store i32 %117, i32* %4, align 4
  %118 = load i32, i32* %4, align 4
  %119 = sext i32 %118 to i64
  %120 = load i64, i64* getelementptr inbounds (%struct.TgHd, %struct.TgHd* @"\01?TagHead@@3UTgHd@@A", i32 0, i32 3), align 8
  %121 = icmp ne i64 %119, %120
  br i1 %121, label %122, label %125

; <label>:122:                                    ; preds = %110
  %123 = call i32 (i8*, ...) @printf(i8* getelementptr inbounds ([18 x i8], [18 x i8]* @"\01??_C@_0BC@KFPMDKOJ@?6Incomplete?5File?4?$AA@", i32 0, i32 0))
  %124 = load i8*, i8** %5, align 8
  call void @free(i8* %124)
  br label %213

; <label>:125:                                    ; preds = %110
  %126 = load i8*, i8** %5, align 8
  %127 = call i32 (i8*, ...) @printf(i8* getelementptr inbounds ([3 x i8], [3 x i8]* @"\01??_C@_02DKCKIIND@?$CFs?$AA@", i32 0, i32 0), i8* %126)
  %128 = load i8*, i8** %5, align 8
  call void @free(i8* %128)
  br label %161

; <label>:129:                                    ; preds = %46
  %130 = load i64, i64* getelementptr inbounds (%struct.TgHd, %struct.TgHd* @"\01?TagHead@@3UTgHd@@A", i32 0, i32 3), align 8
  %131 = call noalias i8* @calloc(i64 %130, i64 1)
  %132 = bitcast i8* %131 to i16*
  store i16* %132, i16** %6, align 8
  %133 = load %struct._iobuf*, %struct._iobuf** %3, align 8
  %134 = load i64, i64* getelementptr inbounds (%struct.TgHd, %struct.TgHd* @"\01?TagHead@@3UTgHd@@A", i32 0, i32 3), align 8
  %135 = load i16*, i16** %6, align 8
  %136 = bitcast i16* %135 to i8*
  %137 = call i64 @fread(i8* %136, i64 1, i64 %134, %struct._iobuf* %133)
  %138 = trunc i64 %137 to i32
  store i32 %138, i32* %4, align 4
  %139 = load i32, i32* %4, align 4
  %140 = sext i32 %139 to i64
  %141 = load i64, i64* getelementptr inbounds (%struct.TgHd, %struct.TgHd* @"\01?TagHead@@3UTgHd@@A", i32 0, i32 3), align 8
  %142 = icmp ne i64 %140, %141
  br i1 %142, label %143, label %147

; <label>:143:                                    ; preds = %129
  %144 = call i32 (i8*, ...) @printf(i8* getelementptr inbounds ([18 x i8], [18 x i8]* @"\01??_C@_0BC@KFPMDKOJ@?6Incomplete?5File?4?$AA@", i32 0, i32 0))
  %145 = load i16*, i16** %6, align 8
  %146 = bitcast i16* %145 to i8*
  call void @free(i8* %146)
  br label %213

; <label>:147:                                    ; preds = %129
  %148 = load i16*, i16** %6, align 8
  %149 = call i32 (i16*, ...) @wprintf(i16* getelementptr inbounds ([3 x i16], [3 x i16]* @"\01??_C@_15GANGMFKL@?$AA?$CF?$AAs?$AA?$AA@", i32 0, i32 0), i16* %148)
  %150 = load i16*, i16** %6, align 8
  %151 = bitcast i16* %150 to i8*
  call void @free(i8* %151)
  br label %161

; <label>:152:                                    ; preds = %46
  %153 = load i64, i64* getelementptr inbounds (%struct.TgHd, %struct.TgHd* @"\01?TagHead@@3UTgHd@@A", i32 0, i32 3), align 8
  %154 = call i32 (i8*, ...) @printf(i8* getelementptr inbounds ([32 x i8], [32 x i8]* @"\01??_C@_0CA@FNNAPBCN@?$DMBinary?5Blob?5contains?5?$CFd?5Bytes?$DO?$AA@", i32 0, i32 0), i64 %153)
  %155 = load i64, i64* getelementptr inbounds (%struct.TgHd, %struct.TgHd* @"\01?TagHead@@3UTgHd@@A", i32 0, i32 3), align 8
  %156 = trunc i64 %155 to i32
  %157 = load %struct._iobuf*, %struct._iobuf** %3, align 8
  %158 = call i32 @fseek(%struct._iobuf* %157, i32 %156, i32 1)
  br label %161

; <label>:159:                                    ; preds = %46
  %160 = call i32 (i8*, ...) @printf(i8* getelementptr inbounds ([44 x i8], [44 x i8]* @"\01??_C@_0CM@NLBAOIPI@Illegal?5Type?5identifier?5found?$CB?5B@", i32 0, i32 0))
  br label %213

; <label>:161:                                    ; preds = %152, %147, %125, %104, %96, %95, %74, %71, %70, %52, %50
  br label %162

; <label>:162:                                    ; preds = %161
  %163 = call i32 @strncmp(i8* getelementptr inbounds (%struct.TgHd, %struct.TgHd* @"\01?TagHead@@3UTgHd@@A", i32 0, i32 0, i32 0), i8* getelementptr inbounds ([11 x i8], [11 x i8]* @"\01??_C@_0L@BKLBDFDP@Header_End?$AA@", i32 0, i32 0), i64 11)
  %164 = icmp ne i32 %163, 0
  br i1 %164, label %27, label %165

; <label>:165:                                    ; preds = %162
  %166 = call i32 (i8*, ...) @printf(i8* getelementptr inbounds ([27 x i8], [27 x i8]* @"\01??_C@_0BL@HPPLJEMK@?6?6?9?9?9?9?9?9?9?9?9?9?9?9?9?9?9?9?9?9?9?9?9?9?9?6?$AA@", i32 0, i32 0))
  %167 = sext i32 %166 to i64
  store i64 %167, i64* @"\01?order_gurantee@@3_JA", align 8
  %168 = load i64, i64* @RecordType, align 8
  switch i64 %168, label %199 [
    i64 66051, label %169
    i64 66052, label %172
    i64 16843268, label %175
    i64 66053, label %178
    i64 66054, label %181
    i64 66307, label %184
    i64 66308, label %187
    i64 16843524, label %190
    i64 66309, label %193
    i64 66310, label %196
  ]

; <label>:169:                                    ; preds = %165
  %170 = call i32 (i8*, ...) @printf(i8* getelementptr inbounds ([19 x i8], [19 x i8]* @"\01??_C@_0BD@EHFANJBB@?6PicoHarp?5T2?5data?6?$AA@", i32 0, i32 0))
  %171 = sext i32 %170 to i64
  store i64 %171, i64* @"\01?order_gurantee@@3_JA", align 8
  store i8 1, i8* %12, align 1
  br label %203

; <label>:172:                                    ; preds = %165
  %173 = call i32 (i8*, ...) @printf(i8* getelementptr inbounds ([23 x i8], [23 x i8]* @"\01??_C@_0BH@NKCKBLM@?6HydraHarp?5V1?5T2?5data?6?$AA@", i32 0, i32 0))
  %174 = sext i32 %173 to i64
  store i64 %174, i64* @"\01?order_gurantee@@3_JA", align 8
  store i8 1, i8* %12, align 1
  br label %203

; <label>:175:                                    ; preds = %165
  %176 = call i32 (i8*, ...) @printf(i8* getelementptr inbounds ([23 x i8], [23 x i8]* @"\01??_C@_0BH@JEEAMHLN@?6HydraHarp?5V2?5T2?5data?6?$AA@", i32 0, i32 0))
  %177 = sext i32 %176 to i64
  store i64 %177, i64* @"\01?order_gurantee@@3_JA", align 8
  store i8 1, i8* %12, align 1
  br label %203

; <label>:178:                                    ; preds = %165
  %179 = call i32 (i8*, ...) @printf(i8* getelementptr inbounds ([23 x i8], [23 x i8]* @"\01??_C@_0BH@DICKBJCF@?6TimeHarp260N?5T2?5data?6?$AA@", i32 0, i32 0))
  %180 = sext i32 %179 to i64
  store i64 %180, i64* @"\01?order_gurantee@@3_JA", align 8
  store i8 1, i8* %12, align 1
  br label %203

; <label>:181:                                    ; preds = %165
  %182 = call i32 (i8*, ...) @printf(i8* getelementptr inbounds ([23 x i8], [23 x i8]* @"\01??_C@_0BH@MEKKPGOI@?6TimeHarp260P?5T2?5data?6?$AA@", i32 0, i32 0))
  %183 = sext i32 %182 to i64
  store i64 %183, i64* @"\01?order_gurantee@@3_JA", align 8
  store i8 1, i8* %12, align 1
  br label %203

; <label>:184:                                    ; preds = %165
  %185 = call i32 (i8*, ...) @printf(i8* getelementptr inbounds ([19 x i8], [19 x i8]* @"\01??_C@_0BD@ILPKNJIP@?6PicoHarp?5T3?5data?6?$AA@", i32 0, i32 0))
  %186 = sext i32 %185 to i64
  store i64 %186, i64* @"\01?order_gurantee@@3_JA", align 8
  store i8 0, i8* %12, align 1
  br label %203

; <label>:187:                                    ; preds = %165
  %188 = call i32 (i8*, ...) @printf(i8* getelementptr inbounds ([23 x i8], [23 x i8]* @"\01??_C@_0BH@MBAIKBCC@?6HydraHarp?5V1?5T3?5data?6?$AA@", i32 0, i32 0))
  %189 = sext i32 %188 to i64
  store i64 %189, i64* @"\01?order_gurantee@@3_JA", align 8
  store i8 0, i8* %12, align 1
  br label %203

; <label>:190:                                    ; preds = %165
  %191 = call i32 (i8*, ...) @printf(i8* getelementptr inbounds ([23 x i8], [23 x i8]* @"\01??_C@_0BH@FIOKMHCD@?6HydraHarp?5V2?5T3?5data?6?$AA@", i32 0, i32 0))
  %192 = sext i32 %191 to i64
  store i64 %192, i64* @"\01?order_gurantee@@3_JA", align 8
  store i8 0, i8* %12, align 1
  br label %203

; <label>:193:                                    ; preds = %165
  %194 = call i32 (i8*, ...) @printf(i8* getelementptr inbounds ([23 x i8], [23 x i8]* @"\01??_C@_0BH@PEIABJLL@?6TimeHarp260N?5T3?5data?6?$AA@", i32 0, i32 0))
  %195 = sext i32 %194 to i64
  store i64 %195, i64* @"\01?order_gurantee@@3_JA", align 8
  store i8 0, i8* %12, align 1
  br label %203

; <label>:196:                                    ; preds = %165
  %197 = call i32 (i8*, ...) @printf(i8* getelementptr inbounds ([23 x i8], [23 x i8]* @"\01??_C@_0BH@IAAPGHG@?6TimeHarp260P?5T3?5data?6?$AA@", i32 0, i32 0))
  %198 = sext i32 %197 to i64
  store i64 %198, i64* @"\01?order_gurantee@@3_JA", align 8
  store i8 0, i8* %12, align 1
  br label %203

; <label>:199:                                    ; preds = %165
  %200 = load i64, i64* @RecordType, align 8
  %201 = call i32 (i8*, ...) @printf(i8* getelementptr inbounds ([44 x i8], [44 x i8]* @"\01??_C@_0CM@KKBPPLIM@?6Unknown?5time?9tag?5record?5type?3?50@", i32 0, i32 0), i64 %200)
  %202 = sext i32 %201 to i64
  store i64 %202, i64* @"\01?order_gurantee@@3_JA", align 8
  br label %213

; <label>:203:                                    ; preds = %196, %193, %190, %187, %184, %181, %178, %175, %172, %169
  %204 = load i8, i8* %12, align 1
  %205 = trunc i8 %204 to i1
  br i1 %205, label %206, label %207

; <label>:206:                                    ; preds = %203
  store i64 12495, i64* @SYNCRate_pspr, align 8
  br label %209

; <label>:207:                                    ; preds = %203
  %208 = load i64, i64* @TTRes_pspr, align 8
  store i64 %208, i64* @SYNCRate_pspr, align 8
  br label %209

; <label>:209:                                    ; preds = %207, %206
  store i64 4, i64* @BytesofRecords, align 8
  %210 = load %struct._iobuf*, %struct._iobuf** %3, align 8
  %211 = call i32 @ftell(%struct._iobuf* %210)
  %212 = sext i32 %211 to i64
  store i64 %212, i64* @TTF_header_offset, align 8
  store i32 0, i32* %2, align 4
  br label %215

; <label>:213:                                    ; preds = %199, %159, %143, %122, %34, %20
  store i32 -1, i32* %2, align 4
  br label %215
                                                  ; No predecessors!
  store i32 -2, i32* %2, align 4
  br label %215

; <label>:215:                                    ; preds = %214, %213, %209
  %216 = load i32, i32* %2, align 4
  ret i32 %216
}

declare i8* @strcpy(i8*, i8*) #2

; Function Attrs: noinline optnone uwtable
define linkonce_odr i32 @sprintf(i8*, i8*, ...) #1 comdat {
  %3 = alloca i8*, align 8
  %4 = alloca i8*, align 8
  %5 = alloca i32, align 4
  %6 = alloca i8*, align 8
  store i8* %1, i8** %3, align 8
  store i8* %0, i8** %4, align 8
  %7 = bitcast i8** %6 to i8*
  call void @llvm.va_start(i8* %7)
  %8 = load i8*, i8** %6, align 8
  %9 = load i8*, i8** %3, align 8
  %10 = load i8*, i8** %4, align 8
  %11 = call i32 @_vsprintf_l(i8* %10, i8* %9, %struct.__crt_locale_pointers* null, i8* %8)
  store i32 %11, i32* %5, align 4
  %12 = bitcast i8** %6 to i8*
  call void @llvm.va_end(i8* %12)
  %13 = load i32, i32* %5, align 4
  ret i32 %13
}

declare i32 @strcmp(i8*, i8*) #2

declare i32 @fseek(%struct._iobuf*, i32, i32) #2

declare i8* @asctime(%struct.tm*) #2

; Function Attrs: noinline optnone uwtable
define internal %struct.tm* @"\01?gmtime@@YAPEAUtm@@QEB_J@Z"(i64*) #1 {
  %2 = alloca i64*, align 8
  store i64* %0, i64** %2, align 8
  %3 = load i64*, i64** %2, align 8
  %4 = call %struct.tm* @_gmtime64(i64* %3)
  ret %struct.tm* %4
}

declare noalias i8* @calloc(i64, i64) #2

declare void @free(i8*) #2

; Function Attrs: noinline optnone uwtable
define linkonce_odr i32 @wprintf(i16*, ...) #1 comdat {
  %2 = alloca i16*, align 8
  %3 = alloca i32, align 4
  %4 = alloca i8*, align 8
  store i16* %0, i16** %2, align 8
  %5 = bitcast i8** %4 to i8*
  call void @llvm.va_start(i8* %5)
  %6 = load i8*, i8** %4, align 8
  %7 = load i16*, i16** %2, align 8
  %8 = call %struct._iobuf* @__acrt_iob_func(i32 1)
  %9 = call i32 @_vfwprintf_l(%struct._iobuf* %8, i16* %7, %struct.__crt_locale_pointers* null, i8* %6)
  store i32 %9, i32* %3, align 4
  %10 = bitcast i8** %4 to i8*
  call void @llvm.va_end(i8* %10)
  %11 = load i32, i32* %3, align 4
  ret i32 %11
}

declare i32 @strncmp(i8*, i8*, i64) #2

; Function Attrs: alwaysinline uwtable
define i32 @PARSE_TimeTagFileHeader(i8*, i32) #0 {
  %3 = alloca i32, align 4
  %4 = alloca %struct._iobuf*, align 8
  %5 = alloca i32, align 4
  %6 = alloca i8*, align 8
  %7 = alloca i16*, align 8
  %8 = alloca [8 x i8], align 1
  %9 = alloca [40 x i8], align 16
  %10 = alloca double, align 8
  %11 = alloca double, align 8
  %12 = alloca i64, align 8
  %13 = alloca i8, align 1
  %14 = alloca i8*, align 8
  %15 = alloca i32, align 4
  %16 = alloca %struct._iobuf*, align 8
  %17 = alloca i32, align 4
  %18 = alloca %struct._iobuf*, align 8
  %19 = alloca [32 x i8], align 16
  %20 = alloca i32, align 4
  %21 = alloca i32, align 4
  %22 = alloca i8*, align 8
  %23 = alloca i32, align 4
  %24 = alloca %struct._iobuf*, align 8
  %25 = alloca [8 x i8], align 1
  %26 = alloca i8, align 1
  %27 = alloca i32, align 4
  store i32 %1, i32* %21, align 4
  store i8* %0, i8** %22, align 8
  store i32 -1, i32* %23, align 4
  %28 = load i8*, i8** %22, align 8
  %29 = call i32 (i8*, ...) @printf(i8* getelementptr inbounds ([15 x i8], [15 x i8]* @"\01??_C@_0P@HHDHBNCE@?6File?5name?3?5?$CFs?$AA@", i32 0, i32 0), i8* %28)
  %30 = sext i32 %29 to i64
  store i64 %30, i64* @"\01?order_gurantee@@3_JA", align 8
  %31 = load i8*, i8** %22, align 8
  %32 = call %struct._iobuf* @fopen(i8* %31, i8* getelementptr inbounds ([3 x i8], [3 x i8]* @"\01??_C@_02JDPG@rb?$AA@", i32 0, i32 0))
  store %struct._iobuf* %32, %struct._iobuf** %24, align 8
  %33 = icmp eq %struct._iobuf* %32, null
  br i1 %33, label %34, label %37

; <label>:34:                                     ; preds = %2
  %35 = call i32 (i8*, ...) @printf(i8* getelementptr inbounds ([50 x i8], [50 x i8]* @"\01??_C@_0DC@PALJOGBL@?6?5?$FLERROR?$FNCan?5not?5open?5time?9tagge@", i32 0, i32 0))
  %36 = sext i32 %35 to i64
  store i64 %36, i64* @"\01?order_gurantee@@3_JA", align 8
  store i32 -1, i32* %20, align 4
  br label %348

; <label>:37:                                     ; preds = %2
  %38 = load %struct._iobuf*, %struct._iobuf** %24, align 8
  %39 = bitcast [8 x i8]* %25 to i8*
  %40 = call i64 @fread(i8* %39, i64 1, i64 8, %struct._iobuf* %38)
  %41 = icmp ne i64 %40, 8
  br i1 %41, label %42, label %45

; <label>:42:                                     ; preds = %37
  %43 = call i32 (i8*, ...) @printf(i8* getelementptr inbounds ([41 x i8], [41 x i8]* @"\01??_C@_0CJ@FCCDKPDO@?6?5?$FLERROR?$FNFailed?5to?5read?5header?0?5@", i32 0, i32 0))
  %44 = sext i32 %43 to i64
  store i64 %44, i64* @"\01?order_gurantee@@3_JA", align 8
  store i32 -2, i32* %20, align 4
  br label %348

; <label>:45:                                     ; preds = %37
  store i8 1, i8* %26, align 1
  %46 = getelementptr inbounds [8 x i8], [8 x i8]* %25, i32 0, i32 0
  %47 = call i32 @strncmp(i8* %46, i8* getelementptr inbounds ([7 x i8], [7 x i8]* @"\01??_C@_06OMFAFKCA@PQTTTR?$AA@", i32 0, i32 0), i64 6)
  %48 = icmp eq i32 %47, 0
  br i1 %48, label %49, label %50

; <label>:49:                                     ; preds = %45
  store i32 -1, i32* %21, align 4
  store i8 0, i8* %26, align 1
  br label %50

; <label>:50:                                     ; preds = %49, %45
  %51 = getelementptr inbounds [8 x i8], [8 x i8]* %25, i32 0, i32 0
  %52 = call i32 @strncmp(i8* %51, i8* getelementptr inbounds ([5 x i8], [5 x i8]* @"\01??_C@_04CHFOFOOE@?$IH?$LD?$JB?z?$AA@", i32 0, i32 0), i64 4)
  %53 = icmp eq i32 %52, 0
  br i1 %53, label %54, label %55

; <label>:54:                                     ; preds = %50
  store i32 0, i32* %21, align 4
  br label %55

; <label>:55:                                     ; preds = %54, %50
  %56 = load i32, i32* %21, align 4
  switch i32 %56, label %326 [
    i32 0, label %57
    i32 1, label %79
    i32 2, label %86
    i32 3, label %108
    i32 -1, label %120
  ]

; <label>:57:                                     ; preds = %55
  %58 = call i32 (i8*, ...) @printf(i8* getelementptr inbounds ([38 x i8], [38 x i8]* @"\01??_C@_0CG@HMLPIAGM@?6Header?5Parser?3?5quTAU_FORMAT_BIN@", i32 0, i32 0))
  %59 = sext i32 %58 to i64
  store i64 %59, i64* @"\01?order_gurantee@@3_JA", align 8
  %60 = load %struct._iobuf*, %struct._iobuf** %24, align 8
  store %struct._iobuf* %60, %struct._iobuf** %18, align 8
  %61 = load %struct._iobuf*, %struct._iobuf** %18, align 8
  %62 = bitcast [32 x i8]* %19 to i8*
  %63 = call i64 @fread(i8* %62, i64 1, i64 32, %struct._iobuf* %61)
  %64 = icmp ne i64 %63, 32
  br i1 %64, label %65, label %68

; <label>:65:                                     ; preds = %57
  %66 = call i32 (i8*, ...) @printf(i8* getelementptr inbounds ([45 x i8], [45 x i8]* @"\01??_C@_0CN@NEMBOFCA@?6?5?$FLERROR?$FNError?5when?5reading?5head@", i32 0, i32 0))
  %67 = sext i32 %66 to i64
  store i64 %67, i64* @"\01?order_gurantee@@3_JA", align 8
  store i32 -1, i32* %17, align 4
  br label %77

; <label>:68:                                     ; preds = %57
  %69 = call i32 (i8*, ...) @printf(i8* getelementptr inbounds ([55 x i8], [55 x i8]* @"\01??_C@_0DH@LIKDKBGP@?6quTAU_FORMAT_BINARY?5file?5header@", i32 0, i32 0))
  %70 = sext i32 %69 to i64
  store i64 %70, i64* @"\01?order_gurantee@@3_JA", align 8
  store i64 0, i64* @RecordType, align 8
  store i64 10, i64* @BytesofRecords, align 8
  %71 = call i32 (i8*, ...) @printf(i8* getelementptr inbounds ([42 x i8], [42 x i8]* @"\01??_C@_0CK@BIOCEFDD@?6RecordType?3?5quTAU_FORMAT_BINARY@", i32 0, i32 0))
  %72 = sext i32 %71 to i64
  store i64 %72, i64* @"\01?order_gurantee@@3_JA", align 8
  store i64 1, i64* @TTRes_pspr, align 8
  %73 = load i64, i64* @TTRes_pspr, align 8
  store i64 %73, i64* @DTRes_pspr, align 8
  store i64 1249, i64* @SYNCRate_pspr, align 8
  %74 = load %struct._iobuf*, %struct._iobuf** %18, align 8
  %75 = call i32 @ftell(%struct._iobuf* %74)
  %76 = sext i32 %75 to i64
  store i64 %76, i64* @TTF_header_offset, align 8
  store i32 0, i32* %17, align 4
  br label %77

; <label>:77:                                     ; preds = %65, %68
  %78 = load i32, i32* %17, align 4
  store i32 %78, i32* %23, align 4
  br label %326

; <label>:79:                                     ; preds = %55
  %80 = call i32 (i8*, ...) @printf(i8* getelementptr inbounds ([37 x i8], [37 x i8]* @"\01??_C@_0CF@NEHPJAOD@?6Header?5Parser?3?5Swebian?5Instrume@", i32 0, i32 0))
  %81 = sext i32 %80 to i64
  store i64 %81, i64* @"\01?order_gurantee@@3_JA", align 8
  %82 = call i32 (i8*, ...) @printf(i8* getelementptr inbounds ([48 x i8], [48 x i8]* @"\01??_C@_0DA@FODAHEFK@?6Swebian?5Instrument?5timetag?5file@", i32 0, i32 0))
  %83 = sext i32 %82 to i64
  store i64 %83, i64* @"\01?order_gurantee@@3_JA", align 8
  store i64 0, i64* @SYNCRate_pspr, align 8
  store i64 1, i64* @TTRes_pspr, align 8
  store i64 1, i64* @DTRes_pspr, align 8
  store i64 1, i64* @RecordType, align 8
  %84 = call i32 (i8*, ...) @printf(i8* getelementptr inbounds ([40 x i8], [40 x i8]* @"\01??_C@_0CI@PMHKJGIO@?6RecordType?3?5SwebianInstrument?51@", i32 0, i32 0))
  %85 = sext i32 %84 to i64
  store i64 %85, i64* @"\01?order_gurantee@@3_JA", align 8
  store i64 16, i64* @BytesofRecords, align 8
  store i64 0, i64* @TTF_header_offset, align 8
  store i32 0, i32* %23, align 4
  br label %326

; <label>:86:                                     ; preds = %55
  %87 = call i32 (i8*, ...) @printf(i8* getelementptr inbounds ([42 x i8], [42 x i8]* @"\01??_C@_0CK@FCNMCNDN@?6Header?5Parser?3?5quTAU_FORMAT_COM@", i32 0, i32 0))
  %88 = sext i32 %87 to i64
  store i64 %88, i64* @"\01?order_gurantee@@3_JA", align 8
  %89 = load %struct._iobuf*, %struct._iobuf** %24, align 8
  store %struct._iobuf* %89, %struct._iobuf** %16, align 8
  %90 = load %struct._iobuf*, %struct._iobuf** %16, align 8
  %91 = bitcast [32 x i8]* %19 to i8*
  %92 = call i64 @fread(i8* %91, i64 1, i64 32, %struct._iobuf* %90)
  %93 = icmp ne i64 %92, 32
  br i1 %93, label %94, label %97

; <label>:94:                                     ; preds = %86
  %95 = call i32 (i8*, ...) @printf(i8* getelementptr inbounds ([45 x i8], [45 x i8]* @"\01??_C@_0CN@NEMBOFCA@?6?5?$FLERROR?$FNError?5when?5reading?5head@", i32 0, i32 0))
  %96 = sext i32 %95 to i64
  store i64 %96, i64* @"\01?order_gurantee@@3_JA", align 8
  store i32 -1, i32* %15, align 4
  br label %106

; <label>:97:                                     ; preds = %86
  %98 = call i32 (i8*, ...) @printf(i8* getelementptr inbounds ([59 x i8], [59 x i8]* @"\01??_C@_0DL@ILPAIDLG@?6quTAU_FORMAT_COMPRESSED?5file?5he@", i32 0, i32 0))
  %99 = sext i32 %98 to i64
  store i64 %99, i64* @"\01?order_gurantee@@3_JA", align 8
  store i64 0, i64* @RecordType, align 8
  store i64 5, i64* @BytesofRecords, align 8
  %100 = call i32 (i8*, ...) @printf(i8* getelementptr inbounds ([45 x i8], [45 x i8]* @"\01??_C@_0CN@MLAGFJGP@?6RecordType?3?5quTAU_FORMAT_COMPRE@", i32 0, i32 0))
  %101 = sext i32 %100 to i64
  store i64 %101, i64* @"\01?order_gurantee@@3_JA", align 8
  store i64 1, i64* @TTRes_pspr, align 8
  %102 = load i64, i64* @TTRes_pspr, align 8
  store i64 %102, i64* @DTRes_pspr, align 8
  store i64 1249, i64* @SYNCRate_pspr, align 8
  %103 = load %struct._iobuf*, %struct._iobuf** %16, align 8
  %104 = call i32 @ftell(%struct._iobuf* %103)
  %105 = sext i32 %104 to i64
  store i64 %105, i64* @TTF_header_offset, align 8
  store i32 0, i32* %15, align 4
  br label %106

; <label>:106:                                    ; preds = %94, %97
  %107 = load i32, i32* %15, align 4
  store i32 %107, i32* %23, align 4
  br label %326

; <label>:108:                                    ; preds = %55
  %109 = call i32 (i8*, ...) @printf(i8* getelementptr inbounds ([32 x i8], [32 x i8]* @"\01??_C@_0CA@KMEBJAMG@?6Header?5Parser?3?5bh_spc_4bytes?5?6?$AA@", i32 0, i32 0))
  %110 = sext i32 %109 to i64
  store i64 %110, i64* @"\01?order_gurantee@@3_JA", align 8
  %111 = getelementptr inbounds [8 x i8], [8 x i8]* %25, i32 0, i32 0
  store i8* %111, i8** %14, align 8
  %112 = call i32 (i8*, ...) @printf(i8* getelementptr inbounds ([64 x i8], [64 x i8]* @"\01??_C@_0EA@FDLFOLNG@?6Becker?5?$CG?5Hickl?5SPC?9134?1144?1154?1@", i32 0, i32 0))
  %113 = sext i32 %112 to i64
  store i64 %113, i64* @"\01?order_gurantee@@3_JA", align 8
  %114 = load i8*, i8** %14, align 8
  %115 = bitcast i8* %114 to i16*
  %116 = load i16, i16* %115, align 2
  %117 = zext i16 %116 to i64
  store i64 %117, i64* @SYNCRate_pspr, align 8
  store i64 1, i64* @DTRes_pspr, align 8
  store i64 0, i64* @TTRes_pspr, align 8
  store i64 3, i64* @RecordType, align 8
  %118 = call i32 (i8*, ...) @printf(i8* getelementptr inbounds ([27 x i8], [27 x i8]* @"\01??_C@_0BL@CDCKOJBK@?6RecordType?3?5bh_spc_4bytes?$AA@", i32 0, i32 0))
  %119 = sext i32 %118 to i64
  store i64 %119, i64* @"\01?order_gurantee@@3_JA", align 8
  store i64 4, i64* @BytesofRecords, align 8
  store i64 4, i64* @TTF_header_offset, align 8
  store i32 0, i32* %23, align 4
  br label %326

; <label>:120:                                    ; preds = %55
  %121 = call i32 (i8*, ...) @printf(i8* getelementptr inbounds ([28 x i8], [28 x i8]* @"\01??_C@_0BM@LJCIIAMF@?6Header?5Parser?3?5PicoQuant?5?6?$AA@", i32 0, i32 0))
  %122 = sext i32 %121 to i64
  store i64 %122, i64* @"\01?order_gurantee@@3_JA", align 8
  %123 = load %struct._iobuf*, %struct._iobuf** %24, align 8
  store %struct._iobuf* %123, %struct._iobuf** %4, align 8
  %124 = load %struct._iobuf*, %struct._iobuf** %4, align 8
  %125 = bitcast [8 x i8]* %8 to i8*
  %126 = call i64 @fread(i8* %125, i64 1, i64 8, %struct._iobuf* %124)
  %127 = trunc i64 %126 to i32
  store i32 %127, i32* %5, align 4
  %128 = load i32, i32* %5, align 4
  %129 = sext i32 %128 to i64
  %130 = icmp ne i64 %129, 8
  br i1 %130, label %131, label %134

; <label>:131:                                    ; preds = %120
  %132 = call i32 (i8*, ...) @printf(i8* getelementptr inbounds ([41 x i8], [41 x i8]* @"\01??_C@_0CJ@BKHAGGLC@?6?5?$FLERROR?$FN?6error?5reading?5header?0?5@", i32 0, i32 0))
  %133 = sext i32 %132 to i64
  store i64 %133, i64* @"\01?order_gurantee@@3_JA", align 8
  br label %323

; <label>:134:                                    ; preds = %120
  %135 = getelementptr inbounds [8 x i8], [8 x i8]* %8, i32 0, i32 0
  %136 = call i32 (i8*, ...) @printf(i8* getelementptr inbounds ([23 x i8], [23 x i8]* @"\01??_C@_0BH@PAEBLGPJ@?6PTU?5file?5Header?3?5?$CFs?5?6?$AA@", i32 0, i32 0), i8* %135)
  %137 = sext i32 %136 to i64
  store i64 %137, i64* @"\01?order_gurantee@@3_JA", align 8
  br label %138

; <label>:138:                                    ; preds = %272, %134
  %139 = load %struct._iobuf*, %struct._iobuf** %4, align 8
  %140 = call i64 @fread(i8* getelementptr inbounds (%struct.TgHd, %struct.TgHd* @"\01?TagHead@@3UTgHd@@A", i32 0, i32 0, i32 0), i64 1, i64 48, %struct._iobuf* %139)
  %141 = trunc i64 %140 to i32
  store i32 %141, i32* %5, align 4
  %142 = load i32, i32* %5, align 4
  %143 = sext i32 %142 to i64
  %144 = icmp ne i64 %143, 48
  br i1 %144, label %145, label %148

; <label>:145:                                    ; preds = %138
  %146 = call i32 (i8*, ...) @printf(i8* getelementptr inbounds ([19 x i8], [19 x i8]* @"\01??_C@_0BD@GFPKCHLP@?6?6Incomplete?5File?4?$AA@", i32 0, i32 0))
  %147 = sext i32 %146 to i64
  store i64 %147, i64* @"\01?order_gurantee@@3_JA", align 8
  br label %323

; <label>:148:                                    ; preds = %138
  %149 = getelementptr inbounds [40 x i8], [40 x i8]* %9, i32 0, i32 0
  %150 = call i8* @strcpy(i8* %149, i8* getelementptr inbounds (%struct.TgHd, %struct.TgHd* @"\01?TagHead@@3UTgHd@@A", i32 0, i32 0, i32 0))
  %151 = load i32, i32* getelementptr inbounds (%struct.TgHd, %struct.TgHd* @"\01?TagHead@@3UTgHd@@A", i32 0, i32 1), align 8
  %152 = icmp sgt i32 %151, -1
  br i1 %152, label %153, label %157

; <label>:153:                                    ; preds = %148
  %154 = load i32, i32* getelementptr inbounds (%struct.TgHd, %struct.TgHd* @"\01?TagHead@@3UTgHd@@A", i32 0, i32 1), align 8
  %155 = getelementptr inbounds [40 x i8], [40 x i8]* %9, i32 0, i32 0
  %156 = call i32 (i8*, i8*, ...) @sprintf(i8* %155, i8* getelementptr inbounds ([7 x i8], [7 x i8]* @"\01??_C@_06BPGFIOAL@?$CFs?$CI?$CFd?$CJ?$AA@", i32 0, i32 0), i8* getelementptr inbounds (%struct.TgHd, %struct.TgHd* @"\01?TagHead@@3UTgHd@@A", i32 0, i32 0, i32 0), i32 %154)
  br label %157

; <label>:157:                                    ; preds = %153, %148
  %158 = getelementptr inbounds [40 x i8], [40 x i8]* %9, i32 0, i32 0
  %159 = call i32 (i8*, ...) @printf(i8* getelementptr inbounds ([7 x i8], [7 x i8]* @"\01??_C@_06PHODKAKM@?6?$CF?940s?$AA@", i32 0, i32 0), i8* %158)
  %160 = load i32, i32* getelementptr inbounds (%struct.TgHd, %struct.TgHd* @"\01?TagHead@@3UTgHd@@A", i32 0, i32 2), align 4
  switch i32 %160, label %270 [
    i32 -65528, label %161
    i32 8, label %163
    i32 268435464, label %169
    i32 285212680, label %182
    i32 301989896, label %185
    i32 536870920, label %188
    i32 537001983, label %207
    i32 553648136, label %215
    i32 1073872895, label %221
    i32 1073938431, label %240
    i32 -1, label %263
  ]

; <label>:161:                                    ; preds = %157
  %162 = call i32 (i8*, ...) @printf(i8* getelementptr inbounds ([12 x i8], [12 x i8]* @"\01??_C@_0M@HECCAEGL@?$DMempty?5Tag?$DO?$AA@", i32 0, i32 0))
  br label %272

; <label>:163:                                    ; preds = %157
  %164 = load i64, i64* getelementptr inbounds (%struct.TgHd, %struct.TgHd* @"\01?TagHead@@3UTgHd@@A", i32 0, i32 3), align 8
  %165 = icmp ne i64 %164, 0
  %166 = zext i1 %165 to i64
  %167 = select i1 %165, i8* getelementptr inbounds ([5 x i8], [5 x i8]* @"\01??_C@_04HPMIDMKH@True?$AA@", i32 0, i32 0), i8* getelementptr inbounds ([6 x i8], [6 x i8]* @"\01??_C@_05MKDOIIA@False?$AA@", i32 0, i32 0)
  %168 = call i32 (i8*, ...) @printf(i8* getelementptr inbounds ([3 x i8], [3 x i8]* @"\01??_C@_02DKCKIIND@?$CFs?$AA@", i32 0, i32 0), i8* %167)
  br label %272

; <label>:169:                                    ; preds = %157
  %170 = load i64, i64* getelementptr inbounds (%struct.TgHd, %struct.TgHd* @"\01?TagHead@@3UTgHd@@A", i32 0, i32 3), align 8
  %171 = call i32 (i8*, ...) @printf(i8* getelementptr inbounds ([5 x i8], [5 x i8]* @"\01??_C@_04BFAHMMK@?$CFlld?$AA@", i32 0, i32 0), i64 %170)
  %172 = call i32 @strcmp(i8* getelementptr inbounds (%struct.TgHd, %struct.TgHd* @"\01?TagHead@@3UTgHd@@A", i32 0, i32 0, i32 0), i8* getelementptr inbounds ([25 x i8], [25 x i8]* @"\01??_C@_0BJ@EFFGOIKF@TTResult_NumberOfRecords?$AA@", i32 0, i32 0))
  %173 = icmp eq i32 %172, 0
  br i1 %173, label %174, label %176

; <label>:174:                                    ; preds = %169
  %175 = load i64, i64* getelementptr inbounds (%struct.TgHd, %struct.TgHd* @"\01?TagHead@@3UTgHd@@A", i32 0, i32 3), align 8
  store i64 %175, i64* @NumRecords, align 8
  br label %176

; <label>:176:                                    ; preds = %174, %169
  %177 = call i32 @strcmp(i8* getelementptr inbounds (%struct.TgHd, %struct.TgHd* @"\01?TagHead@@3UTgHd@@A", i32 0, i32 0, i32 0), i8* getelementptr inbounds ([27 x i8], [27 x i8]* @"\01??_C@_0BL@NBAMDLKF@TTResultFormat_TTTRRecType?$AA@", i32 0, i32 0))
  %178 = icmp eq i32 %177, 0
  br i1 %178, label %179, label %181

; <label>:179:                                    ; preds = %176
  %180 = load i64, i64* getelementptr inbounds (%struct.TgHd, %struct.TgHd* @"\01?TagHead@@3UTgHd@@A", i32 0, i32 3), align 8
  store i64 %180, i64* @RecordType, align 8
  br label %181

; <label>:181:                                    ; preds = %179, %176
  br label %272

; <label>:182:                                    ; preds = %157
  %183 = load i64, i64* getelementptr inbounds (%struct.TgHd, %struct.TgHd* @"\01?TagHead@@3UTgHd@@A", i32 0, i32 3), align 8
  %184 = call i32 (i8*, ...) @printf(i8* getelementptr inbounds ([10 x i8], [10 x i8]* @"\01??_C@_09DGLOBCMH@0x?$CF16?416X?$AA@", i32 0, i32 0), i64 %183)
  br label %272

; <label>:185:                                    ; preds = %157
  %186 = load i64, i64* getelementptr inbounds (%struct.TgHd, %struct.TgHd* @"\01?TagHead@@3UTgHd@@A", i32 0, i32 3), align 8
  %187 = call i32 (i8*, ...) @printf(i8* getelementptr inbounds ([10 x i8], [10 x i8]* @"\01??_C@_09DGLOBCMH@0x?$CF16?416X?$AA@", i32 0, i32 0), i64 %186)
  br label %272

; <label>:188:                                    ; preds = %157
  %189 = load double, double* bitcast (i64* getelementptr inbounds (%struct.TgHd, %struct.TgHd* @"\01?TagHead@@3UTgHd@@A", i32 0, i32 3) to double*), align 8
  %190 = call i32 (i8*, ...) @printf(i8* getelementptr inbounds ([3 x i8], [3 x i8]* @"\01??_C@_02LDDGBJKG@?$CFE?$AA@", i32 0, i32 0), double %189)
  %191 = call i32 @strcmp(i8* getelementptr inbounds (%struct.TgHd, %struct.TgHd* @"\01?TagHead@@3UTgHd@@A", i32 0, i32 0, i32 0), i8* getelementptr inbounds ([20 x i8], [20 x i8]* @"\01??_C@_0BE@MLJFPCOI@MeasDesc_Resolution?$AA@", i32 0, i32 0))
  %192 = icmp eq i32 %191, 0
  br i1 %192, label %193, label %198

; <label>:193:                                    ; preds = %188
  %194 = load double, double* bitcast (i64* getelementptr inbounds (%struct.TgHd, %struct.TgHd* @"\01?TagHead@@3UTgHd@@A", i32 0, i32 3) to double*), align 8
  store double %194, double* %10, align 8
  %195 = load double, double* %10, align 8
  %196 = fmul double %195, 1.000000e+12
  %197 = fptosi double %196 to i64
  store i64 %197, i64* @DTRes_pspr, align 8
  br label %198

; <label>:198:                                    ; preds = %193, %188
  %199 = call i32 @strcmp(i8* getelementptr inbounds (%struct.TgHd, %struct.TgHd* @"\01?TagHead@@3UTgHd@@A", i32 0, i32 0, i32 0), i8* getelementptr inbounds ([26 x i8], [26 x i8]* @"\01??_C@_0BK@JGMIOCJJ@MeasDesc_GlobalResolution?$AA@", i32 0, i32 0))
  %200 = icmp eq i32 %199, 0
  br i1 %200, label %201, label %206

; <label>:201:                                    ; preds = %198
  %202 = load double, double* bitcast (i64* getelementptr inbounds (%struct.TgHd, %struct.TgHd* @"\01?TagHead@@3UTgHd@@A", i32 0, i32 3) to double*), align 8
  store double %202, double* %11, align 8
  %203 = load double, double* %11, align 8
  %204 = fmul double %203, 1.000000e+12
  %205 = fptosi double %204 to i64
  store i64 %205, i64* @TTRes_pspr, align 8
  br label %206

; <label>:206:                                    ; preds = %201, %198
  br label %272

; <label>:207:                                    ; preds = %157
  %208 = load i64, i64* getelementptr inbounds (%struct.TgHd, %struct.TgHd* @"\01?TagHead@@3UTgHd@@A", i32 0, i32 3), align 8
  %209 = udiv i64 %208, 8
  %210 = call i32 (i8*, ...) @printf(i8* getelementptr inbounds ([30 x i8], [30 x i8]* @"\01??_C@_0BO@ENEJMDLG@?$DMFloat?5Array?5with?5?$CFd?5Entries?$DO?$AA@", i32 0, i32 0), i64 %209)
  %211 = load i64, i64* getelementptr inbounds (%struct.TgHd, %struct.TgHd* @"\01?TagHead@@3UTgHd@@A", i32 0, i32 3), align 8
  %212 = trunc i64 %211 to i32
  %213 = load %struct._iobuf*, %struct._iobuf** %4, align 8
  %214 = call i32 @fseek(%struct._iobuf* %213, i32 %212, i32 1)
  br label %272

; <label>:215:                                    ; preds = %157
  %216 = load double, double* bitcast (i64* getelementptr inbounds (%struct.TgHd, %struct.TgHd* @"\01?TagHead@@3UTgHd@@A", i32 0, i32 3) to double*), align 8
  %217 = call i64 @"\01?TDateTime_TimeT@@YA_JN@Z"(double %216)
  store i64 %217, i64* %12, align 8
  %218 = call %struct.tm* @"\01?gmtime@@YAPEAUtm@@QEB_J@Z"(i64* %12)
  %219 = call i8* @asctime(%struct.tm* %218)
  %220 = call i32 (i8*, ...) @printf(i8* getelementptr inbounds ([3 x i8], [3 x i8]* @"\01??_C@_02DKCKIIND@?$CFs?$AA@", i32 0, i32 0), i8* %219, i8* getelementptr inbounds ([2 x i8], [2 x i8]* @"\01??_C@_01LOCGONAA@?$AA?$AA@", i32 0, i32 0))
  br label %272

; <label>:221:                                    ; preds = %157
  %222 = load i64, i64* getelementptr inbounds (%struct.TgHd, %struct.TgHd* @"\01?TagHead@@3UTgHd@@A", i32 0, i32 3), align 8
  %223 = call noalias i8* @calloc(i64 %222, i64 1)
  store i8* %223, i8** %6, align 8
  %224 = load %struct._iobuf*, %struct._iobuf** %4, align 8
  %225 = load i64, i64* getelementptr inbounds (%struct.TgHd, %struct.TgHd* @"\01?TagHead@@3UTgHd@@A", i32 0, i32 3), align 8
  %226 = load i8*, i8** %6, align 8
  %227 = call i64 @fread(i8* %226, i64 1, i64 %225, %struct._iobuf* %224)
  %228 = trunc i64 %227 to i32
  store i32 %228, i32* %5, align 4
  %229 = load i32, i32* %5, align 4
  %230 = sext i32 %229 to i64
  %231 = load i64, i64* getelementptr inbounds (%struct.TgHd, %struct.TgHd* @"\01?TagHead@@3UTgHd@@A", i32 0, i32 3), align 8
  %232 = icmp ne i64 %230, %231
  br i1 %232, label %233, label %236

; <label>:233:                                    ; preds = %221
  %234 = call i32 (i8*, ...) @printf(i8* getelementptr inbounds ([18 x i8], [18 x i8]* @"\01??_C@_0BC@KFPMDKOJ@?6Incomplete?5File?4?$AA@", i32 0, i32 0))
  %235 = load i8*, i8** %6, align 8
  call void @free(i8* %235)
  br label %323

; <label>:236:                                    ; preds = %221
  %237 = load i8*, i8** %6, align 8
  %238 = call i32 (i8*, ...) @printf(i8* getelementptr inbounds ([3 x i8], [3 x i8]* @"\01??_C@_02DKCKIIND@?$CFs?$AA@", i32 0, i32 0), i8* %237)
  %239 = load i8*, i8** %6, align 8
  call void @free(i8* %239)
  br label %272

; <label>:240:                                    ; preds = %157
  %241 = load i64, i64* getelementptr inbounds (%struct.TgHd, %struct.TgHd* @"\01?TagHead@@3UTgHd@@A", i32 0, i32 3), align 8
  %242 = call noalias i8* @calloc(i64 %241, i64 1)
  %243 = bitcast i8* %242 to i16*
  store i16* %243, i16** %7, align 8
  %244 = load %struct._iobuf*, %struct._iobuf** %4, align 8
  %245 = load i64, i64* getelementptr inbounds (%struct.TgHd, %struct.TgHd* @"\01?TagHead@@3UTgHd@@A", i32 0, i32 3), align 8
  %246 = load i16*, i16** %7, align 8
  %247 = bitcast i16* %246 to i8*
  %248 = call i64 @fread(i8* %247, i64 1, i64 %245, %struct._iobuf* %244)
  %249 = trunc i64 %248 to i32
  store i32 %249, i32* %5, align 4
  %250 = load i32, i32* %5, align 4
  %251 = sext i32 %250 to i64
  %252 = load i64, i64* getelementptr inbounds (%struct.TgHd, %struct.TgHd* @"\01?TagHead@@3UTgHd@@A", i32 0, i32 3), align 8
  %253 = icmp ne i64 %251, %252
  br i1 %253, label %254, label %258

; <label>:254:                                    ; preds = %240
  %255 = call i32 (i8*, ...) @printf(i8* getelementptr inbounds ([18 x i8], [18 x i8]* @"\01??_C@_0BC@KFPMDKOJ@?6Incomplete?5File?4?$AA@", i32 0, i32 0))
  %256 = load i16*, i16** %7, align 8
  %257 = bitcast i16* %256 to i8*
  call void @free(i8* %257)
  br label %323

; <label>:258:                                    ; preds = %240
  %259 = load i16*, i16** %7, align 8
  %260 = call i32 (i16*, ...) @wprintf(i16* getelementptr inbounds ([3 x i16], [3 x i16]* @"\01??_C@_15GANGMFKL@?$AA?$CF?$AAs?$AA?$AA@", i32 0, i32 0), i16* %259)
  %261 = load i16*, i16** %7, align 8
  %262 = bitcast i16* %261 to i8*
  call void @free(i8* %262)
  br label %272

; <label>:263:                                    ; preds = %157
  %264 = load i64, i64* getelementptr inbounds (%struct.TgHd, %struct.TgHd* @"\01?TagHead@@3UTgHd@@A", i32 0, i32 3), align 8
  %265 = call i32 (i8*, ...) @printf(i8* getelementptr inbounds ([32 x i8], [32 x i8]* @"\01??_C@_0CA@FNNAPBCN@?$DMBinary?5Blob?5contains?5?$CFd?5Bytes?$DO?$AA@", i32 0, i32 0), i64 %264)
  %266 = load i64, i64* getelementptr inbounds (%struct.TgHd, %struct.TgHd* @"\01?TagHead@@3UTgHd@@A", i32 0, i32 3), align 8
  %267 = trunc i64 %266 to i32
  %268 = load %struct._iobuf*, %struct._iobuf** %4, align 8
  %269 = call i32 @fseek(%struct._iobuf* %268, i32 %267, i32 1)
  br label %272

; <label>:270:                                    ; preds = %157
  %271 = call i32 (i8*, ...) @printf(i8* getelementptr inbounds ([44 x i8], [44 x i8]* @"\01??_C@_0CM@NLBAOIPI@Illegal?5Type?5identifier?5found?$CB?5B@", i32 0, i32 0))
  br label %323

; <label>:272:                                    ; preds = %263, %258, %236, %215, %207, %206, %185, %182, %181, %163, %161
  %273 = call i32 @strncmp(i8* getelementptr inbounds (%struct.TgHd, %struct.TgHd* @"\01?TagHead@@3UTgHd@@A", i32 0, i32 0, i32 0), i8* getelementptr inbounds ([11 x i8], [11 x i8]* @"\01??_C@_0L@BKLBDFDP@Header_End?$AA@", i32 0, i32 0), i64 11)
  %274 = icmp ne i32 %273, 0
  br i1 %274, label %138, label %275

; <label>:275:                                    ; preds = %272
  %276 = call i32 (i8*, ...) @printf(i8* getelementptr inbounds ([27 x i8], [27 x i8]* @"\01??_C@_0BL@HPPLJEMK@?6?6?9?9?9?9?9?9?9?9?9?9?9?9?9?9?9?9?9?9?9?9?9?9?9?6?$AA@", i32 0, i32 0))
  %277 = sext i32 %276 to i64
  store i64 %277, i64* @"\01?order_gurantee@@3_JA", align 8
  %278 = load i64, i64* @RecordType, align 8
  switch i64 %278, label %309 [
    i64 66051, label %279
    i64 66052, label %282
    i64 16843268, label %285
    i64 66053, label %288
    i64 66054, label %291
    i64 66307, label %294
    i64 66308, label %297
    i64 16843524, label %300
    i64 66309, label %303
    i64 66310, label %306
  ]

; <label>:279:                                    ; preds = %275
  %280 = call i32 (i8*, ...) @printf(i8* getelementptr inbounds ([19 x i8], [19 x i8]* @"\01??_C@_0BD@EHFANJBB@?6PicoHarp?5T2?5data?6?$AA@", i32 0, i32 0))
  %281 = sext i32 %280 to i64
  store i64 %281, i64* @"\01?order_gurantee@@3_JA", align 8
  store i8 1, i8* %13, align 1
  br label %313

; <label>:282:                                    ; preds = %275
  %283 = call i32 (i8*, ...) @printf(i8* getelementptr inbounds ([23 x i8], [23 x i8]* @"\01??_C@_0BH@NKCKBLM@?6HydraHarp?5V1?5T2?5data?6?$AA@", i32 0, i32 0))
  %284 = sext i32 %283 to i64
  store i64 %284, i64* @"\01?order_gurantee@@3_JA", align 8
  store i8 1, i8* %13, align 1
  br label %313

; <label>:285:                                    ; preds = %275
  %286 = call i32 (i8*, ...) @printf(i8* getelementptr inbounds ([23 x i8], [23 x i8]* @"\01??_C@_0BH@JEEAMHLN@?6HydraHarp?5V2?5T2?5data?6?$AA@", i32 0, i32 0))
  %287 = sext i32 %286 to i64
  store i64 %287, i64* @"\01?order_gurantee@@3_JA", align 8
  store i8 1, i8* %13, align 1
  br label %313

; <label>:288:                                    ; preds = %275
  %289 = call i32 (i8*, ...) @printf(i8* getelementptr inbounds ([23 x i8], [23 x i8]* @"\01??_C@_0BH@DICKBJCF@?6TimeHarp260N?5T2?5data?6?$AA@", i32 0, i32 0))
  %290 = sext i32 %289 to i64
  store i64 %290, i64* @"\01?order_gurantee@@3_JA", align 8
  store i8 1, i8* %13, align 1
  br label %313

; <label>:291:                                    ; preds = %275
  %292 = call i32 (i8*, ...) @printf(i8* getelementptr inbounds ([23 x i8], [23 x i8]* @"\01??_C@_0BH@MEKKPGOI@?6TimeHarp260P?5T2?5data?6?$AA@", i32 0, i32 0))
  %293 = sext i32 %292 to i64
  store i64 %293, i64* @"\01?order_gurantee@@3_JA", align 8
  store i8 1, i8* %13, align 1
  br label %313

; <label>:294:                                    ; preds = %275
  %295 = call i32 (i8*, ...) @printf(i8* getelementptr inbounds ([19 x i8], [19 x i8]* @"\01??_C@_0BD@ILPKNJIP@?6PicoHarp?5T3?5data?6?$AA@", i32 0, i32 0))
  %296 = sext i32 %295 to i64
  store i64 %296, i64* @"\01?order_gurantee@@3_JA", align 8
  store i8 0, i8* %13, align 1
  br label %313

; <label>:297:                                    ; preds = %275
  %298 = call i32 (i8*, ...) @printf(i8* getelementptr inbounds ([23 x i8], [23 x i8]* @"\01??_C@_0BH@MBAIKBCC@?6HydraHarp?5V1?5T3?5data?6?$AA@", i32 0, i32 0))
  %299 = sext i32 %298 to i64
  store i64 %299, i64* @"\01?order_gurantee@@3_JA", align 8
  store i8 0, i8* %13, align 1
  br label %313

; <label>:300:                                    ; preds = %275
  %301 = call i32 (i8*, ...) @printf(i8* getelementptr inbounds ([23 x i8], [23 x i8]* @"\01??_C@_0BH@FIOKMHCD@?6HydraHarp?5V2?5T3?5data?6?$AA@", i32 0, i32 0))
  %302 = sext i32 %301 to i64
  store i64 %302, i64* @"\01?order_gurantee@@3_JA", align 8
  store i8 0, i8* %13, align 1
  br label %313

; <label>:303:                                    ; preds = %275
  %304 = call i32 (i8*, ...) @printf(i8* getelementptr inbounds ([23 x i8], [23 x i8]* @"\01??_C@_0BH@PEIABJLL@?6TimeHarp260N?5T3?5data?6?$AA@", i32 0, i32 0))
  %305 = sext i32 %304 to i64
  store i64 %305, i64* @"\01?order_gurantee@@3_JA", align 8
  store i8 0, i8* %13, align 1
  br label %313

; <label>:306:                                    ; preds = %275
  %307 = call i32 (i8*, ...) @printf(i8* getelementptr inbounds ([23 x i8], [23 x i8]* @"\01??_C@_0BH@IAAPGHG@?6TimeHarp260P?5T3?5data?6?$AA@", i32 0, i32 0))
  %308 = sext i32 %307 to i64
  store i64 %308, i64* @"\01?order_gurantee@@3_JA", align 8
  store i8 0, i8* %13, align 1
  br label %313

; <label>:309:                                    ; preds = %275
  %310 = load i64, i64* @RecordType, align 8
  %311 = call i32 (i8*, ...) @printf(i8* getelementptr inbounds ([44 x i8], [44 x i8]* @"\01??_C@_0CM@KKBPPLIM@?6Unknown?5time?9tag?5record?5type?3?50@", i32 0, i32 0), i64 %310)
  %312 = sext i32 %311 to i64
  store i64 %312, i64* @"\01?order_gurantee@@3_JA", align 8
  br label %323

; <label>:313:                                    ; preds = %306, %303, %300, %297, %294, %291, %288, %285, %282, %279
  %314 = load i8, i8* %13, align 1
  %315 = trunc i8 %314 to i1
  br i1 %315, label %316, label %317

; <label>:316:                                    ; preds = %313
  store i64 12495, i64* @SYNCRate_pspr, align 8
  br label %319

; <label>:317:                                    ; preds = %313
  %318 = load i64, i64* @TTRes_pspr, align 8
  store i64 %318, i64* @SYNCRate_pspr, align 8
  br label %319

; <label>:319:                                    ; preds = %317, %316
  store i64 4, i64* @BytesofRecords, align 8
  %320 = load %struct._iobuf*, %struct._iobuf** %4, align 8
  %321 = call i32 @ftell(%struct._iobuf* %320)
  %322 = sext i32 %321 to i64
  store i64 %322, i64* @TTF_header_offset, align 8
  store i32 0, i32* %3, align 4
  br label %324

; <label>:323:                                    ; preds = %309, %270, %254, %233, %145, %131
  store i32 -1, i32* %3, align 4
  br label %324

; <label>:324:                                    ; preds = %319, %323
  %325 = load i32, i32* %3, align 4
  store i32 %325, i32* %23, align 4
  br label %326

; <label>:326:                                    ; preds = %55, %324, %108, %106, %79, %77
  %327 = load %struct._iobuf*, %struct._iobuf** %24, align 8
  %328 = call i32 @fclose(%struct._iobuf* %327)
  %329 = load i8*, i8** %22, align 8
  %330 = call i32 @_sopen_s(i32* %27, i8* %329, i32 0, i32 64, i32 0)
  %331 = load i32, i32* %27, align 4
  %332 = call i64 @_lseeki64(i32 %331, i64 0, i32 2)
  store i64 %332, i64* @TTF_filesize, align 8
  %333 = load i32, i32* %27, align 4
  %334 = call i32 @_close(i32 %333)
  %335 = load i64, i64* @TTF_filesize, align 8
  %336 = call i32 (i8*, ...) @printf(i8* getelementptr inbounds ([16 x i8], [16 x i8]* @"\01??_C@_0BA@INEDNOAD@?6Filesize?3?5?$CFlld?$AA@", i32 0, i32 0), i64 %335)
  %337 = sext i32 %336 to i64
  store i64 %337, i64* @"\01?order_gurantee@@3_JA", align 8
  %338 = load i8, i8* %26, align 1
  %339 = trunc i8 %338 to i1
  br i1 %339, label %340, label %346

; <label>:340:                                    ; preds = %326
  %341 = load i64, i64* @TTF_filesize, align 8
  %342 = load i64, i64* @TTF_header_offset, align 8
  %343 = sub nsw i64 %341, %342
  %344 = load i64, i64* @BytesofRecords, align 8
  %345 = sdiv i64 %343, %344
  store i64 %345, i64* @NumRecords, align 8
  br label %346

; <label>:346:                                    ; preds = %340, %326
  %347 = load i32, i32* %23, align 4
  store i32 %347, i32* %20, align 4
  br label %348

; <label>:348:                                    ; preds = %346, %42, %34
  %349 = load i32, i32* %20, align 4
  ret i32 %349
}

declare %struct._iobuf* @fopen(i8*, i8*) #2

declare i32 @fclose(%struct._iobuf*) #2

declare i32 @_sopen_s(i32*, i8*, i32, i32, i32) #2

declare i64 @_lseeki64(i32, i64, i32) #2

declare i32 @_close(i32) #2

; Function Attrs: nounwind
declare void @llvm.va_start(i8*) #4

; Function Attrs: noinline optnone uwtable
define linkonce_odr i32 @_vfprintf_l(%struct._iobuf*, i8*, %struct.__crt_locale_pointers*, i8*) #1 comdat {
  %5 = alloca i8*, align 8
  %6 = alloca %struct.__crt_locale_pointers*, align 8
  %7 = alloca i8*, align 8
  %8 = alloca %struct._iobuf*, align 8
  store i8* %3, i8** %5, align 8
  store %struct.__crt_locale_pointers* %2, %struct.__crt_locale_pointers** %6, align 8
  store i8* %1, i8** %7, align 8
  store %struct._iobuf* %0, %struct._iobuf** %8, align 8
  %9 = load i8*, i8** %5, align 8
  %10 = load %struct.__crt_locale_pointers*, %struct.__crt_locale_pointers** %6, align 8
  %11 = load i8*, i8** %7, align 8
  %12 = load %struct._iobuf*, %struct._iobuf** %8, align 8
  %13 = call i64* @__local_stdio_printf_options()
  %14 = load i64, i64* %13, align 8
  %15 = call i32 @__stdio_common_vfprintf(i64 %14, %struct._iobuf* %12, i8* %11, %struct.__crt_locale_pointers* %10, i8* %9)
  ret i32 %15
}

declare %struct._iobuf* @__acrt_iob_func(i32) #2

; Function Attrs: nounwind
declare void @llvm.va_end(i8*) #4

declare i32 @__stdio_common_vfprintf(i64, %struct._iobuf*, i8*, %struct.__crt_locale_pointers*, i8*) #2

; Function Attrs: noinline nounwind optnone uwtable
define linkonce_odr i64* @__local_stdio_printf_options() #3 comdat {
  ret i64* @"\01?_OptionsStorage@?1??__local_stdio_printf_options@@9@4_KA"
}

; Function Attrs: noinline optnone uwtable
define linkonce_odr i32 @_vsprintf_l(i8*, i8*, %struct.__crt_locale_pointers*, i8*) #1 comdat {
  %5 = alloca i8*, align 8
  %6 = alloca %struct.__crt_locale_pointers*, align 8
  %7 = alloca i8*, align 8
  %8 = alloca i8*, align 8
  store i8* %3, i8** %5, align 8
  store %struct.__crt_locale_pointers* %2, %struct.__crt_locale_pointers** %6, align 8
  store i8* %1, i8** %7, align 8
  store i8* %0, i8** %8, align 8
  %9 = load i8*, i8** %5, align 8
  %10 = load %struct.__crt_locale_pointers*, %struct.__crt_locale_pointers** %6, align 8
  %11 = load i8*, i8** %7, align 8
  %12 = load i8*, i8** %8, align 8
  %13 = call i32 @_vsnprintf_l(i8* %12, i64 -1, i8* %11, %struct.__crt_locale_pointers* %10, i8* %9)
  ret i32 %13
}

; Function Attrs: noinline optnone uwtable
define linkonce_odr i32 @_vsnprintf_l(i8*, i64, i8*, %struct.__crt_locale_pointers*, i8*) #1 comdat {
  %6 = alloca i8*, align 8
  %7 = alloca %struct.__crt_locale_pointers*, align 8
  %8 = alloca i8*, align 8
  %9 = alloca i64, align 8
  %10 = alloca i8*, align 8
  %11 = alloca i32, align 4
  store i8* %4, i8** %6, align 8
  store %struct.__crt_locale_pointers* %3, %struct.__crt_locale_pointers** %7, align 8
  store i8* %2, i8** %8, align 8
  store i64 %1, i64* %9, align 8
  store i8* %0, i8** %10, align 8
  %12 = load i8*, i8** %6, align 8
  %13 = load %struct.__crt_locale_pointers*, %struct.__crt_locale_pointers** %7, align 8
  %14 = load i8*, i8** %8, align 8
  %15 = load i64, i64* %9, align 8
  %16 = load i8*, i8** %10, align 8
  %17 = call i64* @__local_stdio_printf_options()
  %18 = load i64, i64* %17, align 8
  %19 = or i64 %18, 1
  %20 = call i32 @__stdio_common_vsprintf(i64 %19, i8* %16, i64 %15, i8* %14, %struct.__crt_locale_pointers* %13, i8* %12)
  store i32 %20, i32* %11, align 4
  %21 = load i32, i32* %11, align 4
  %22 = icmp slt i32 %21, 0
  br i1 %22, label %23, label %24

; <label>:23:                                     ; preds = %5
  br label %26

; <label>:24:                                     ; preds = %5
  %25 = load i32, i32* %11, align 4
  br label %26

; <label>:26:                                     ; preds = %24, %23
  %27 = phi i32 [ -1, %23 ], [ %25, %24 ]
  ret i32 %27
}

declare i32 @__stdio_common_vsprintf(i64, i8*, i64, i8*, %struct.__crt_locale_pointers*, i8*) #2

declare %struct.tm* @_gmtime64(i64*) #2

; Function Attrs: noinline optnone uwtable
define linkonce_odr i32 @_vfwprintf_l(%struct._iobuf*, i16*, %struct.__crt_locale_pointers*, i8*) #1 comdat {
  %5 = alloca i8*, align 8
  %6 = alloca %struct.__crt_locale_pointers*, align 8
  %7 = alloca i16*, align 8
  %8 = alloca %struct._iobuf*, align 8
  store i8* %3, i8** %5, align 8
  store %struct.__crt_locale_pointers* %2, %struct.__crt_locale_pointers** %6, align 8
  store i16* %1, i16** %7, align 8
  store %struct._iobuf* %0, %struct._iobuf** %8, align 8
  %9 = load i8*, i8** %5, align 8
  %10 = load %struct.__crt_locale_pointers*, %struct.__crt_locale_pointers** %6, align 8
  %11 = load i16*, i16** %7, align 8
  %12 = load %struct._iobuf*, %struct._iobuf** %8, align 8
  %13 = call i64* @__local_stdio_printf_options()
  %14 = load i64, i64* %13, align 8
  %15 = call i32 @__stdio_common_vfwprintf(i64 %14, %struct._iobuf* %12, i16* %11, %struct.__crt_locale_pointers* %10, i8* %9)
  ret i32 %15
}

declare i32 @__stdio_common_vfwprintf(i64, %struct._iobuf*, i16*, %struct.__crt_locale_pointers*, i8*) #2

attributes #0 = { alwaysinline uwtable "correctly-rounded-divide-sqrt-fp-math"="false" "disable-tail-calls"="false" "less-precise-fpmad"="false" "no-frame-pointer-elim"="false" "no-infs-fp-math"="false" "no-jump-tables"="false" "no-nans-fp-math"="false" "no-signed-zeros-fp-math"="false" "no-trapping-math"="false" "stack-protector-buffer-size"="8" "target-cpu"="x86-64" "target-features"="+fxsr,+mmx,+sse,+sse2,+x87" "unsafe-fp-math"="false" "use-soft-float"="false" }
attributes #1 = { noinline optnone uwtable "correctly-rounded-divide-sqrt-fp-math"="false" "disable-tail-calls"="false" "less-precise-fpmad"="false" "no-frame-pointer-elim"="false" "no-infs-fp-math"="false" "no-jump-tables"="false" "no-nans-fp-math"="false" "no-signed-zeros-fp-math"="false" "no-trapping-math"="false" "stack-protector-buffer-size"="8" "target-cpu"="x86-64" "target-features"="+fxsr,+mmx,+sse,+sse2,+x87" "unsafe-fp-math"="false" "use-soft-float"="false" }
attributes #2 = { "correctly-rounded-divide-sqrt-fp-math"="false" "disable-tail-calls"="false" "less-precise-fpmad"="false" "no-frame-pointer-elim"="false" "no-infs-fp-math"="false" "no-nans-fp-math"="false" "no-signed-zeros-fp-math"="false" "no-trapping-math"="false" "stack-protector-buffer-size"="8" "target-cpu"="x86-64" "target-features"="+fxsr,+mmx,+sse,+sse2,+x87" "unsafe-fp-math"="false" "use-soft-float"="false" }
attributes #3 = { noinline nounwind optnone uwtable "correctly-rounded-divide-sqrt-fp-math"="false" "disable-tail-calls"="false" "less-precise-fpmad"="false" "no-frame-pointer-elim"="false" "no-infs-fp-math"="false" "no-jump-tables"="false" "no-nans-fp-math"="false" "no-signed-zeros-fp-math"="false" "no-trapping-math"="false" "stack-protector-buffer-size"="8" "target-cpu"="x86-64" "target-features"="+fxsr,+mmx,+sse,+sse2,+x87" "unsafe-fp-math"="false" "use-soft-float"="false" }
attributes #4 = { nounwind }

!llvm.linker.options = !{!0}
!llvm.module.flags = !{!1, !2}
!llvm.ident = !{!3}

!0 = !{!"/FAILIFMISMATCH:\22_CRT_STDIO_ISO_WIDE_SPECIFIERS=0\22"}
!1 = !{i32 1, !"wchar_size", i32 2}
!2 = !{i32 7, !"PIC Level", i32 2}
!3 = !{!"clang version 6.0.1 (tags/RELEASE_601/final)"}
